	.build_version macos, 26, 0	sdk_version 26, 4
	.file	0 "/Users/vaibhavgoyal/Documents/learn/cpp/MyDSACollection/CPP/build" "main.cpp" md5 0xa20a47122bf6195d59353c3db45d8ced
	.file	1 "/Users/vaibhavgoyal/Documents/learn/cpp/MyDSACollection/CPP" "main.cpp"
	.file	2 "/opt/homebrew/Cellar/llvm/22.1.3/bin/../include/c++/v1" "string"
	.file	3 "/opt/homebrew/Cellar/llvm/22.1.3/bin/../include/c++/v1/__exception" "exception.h"
	.file	4 "/opt/homebrew/Cellar/llvm/22.1.3/bin/../include/c++/v1" "stdexcept"
	.file	5 "/opt/homebrew/Cellar/llvm/22.1.3/bin/../include/c++/v1/__string" "char_traits.h"
	.file	6 "/opt/homebrew/Cellar/llvm/22.1.3/bin/../include/c++/v1/__cstddef" "size_t.h"
	.file	7 "/opt/homebrew/Cellar/llvm/22.1.3/bin/../include/c++/v1/__memory" "allocator.h"
	.file	8 "/opt/homebrew/Cellar/llvm/22.1.3/bin/../include/c++/v1/__memory" "allocator_traits.h"
	.file	9 "/opt/homebrew/Cellar/llvm/22.1.3/bin/../include/c++/v1/__memory" "allocate_at_least.h"
	.file	10 "/opt/homebrew/Cellar/llvm/22.1.3/bin/../include/c++/v1/__utility" "no_destroy.h"
	.file	11 "/opt/homebrew/Cellar/llvm/22.1.3/bin/../include/c++/v1/__memory" "compressed_pair.h"
	.file	12 "/opt/homebrew/Cellar/llvm/22.1.3/bin/../include/c++/v1/__iterator" "wrap_iter.h"
	.file	13 "/opt/homebrew/Cellar/llvm/22.1.3/bin/../include/c++/v1/__iterator" "iterator_traits.h"
	.file	14 "/opt/homebrew/Cellar/llvm/22.1.3/bin/../include/c++/v1/__cstddef" "ptrdiff_t.h"
	.file	15 "/opt/homebrew/Cellar/llvm/22.1.3/bin/../include/c++/v1/__memory" "pointer_traits.h"
	.file	16 "/opt/homebrew/Cellar/llvm/22.1.3/bin/../include/c++/v1" "initializer_list"
	.file	17 "/opt/homebrew/Cellar/llvm/22.1.3/bin/../include/c++/v1" "string_view"
	.file	18 "/opt/homebrew/Cellar/llvm/22.1.3/bin/../include/c++/v1/__fwd" "string_view.h"
	.file	19 "/opt/homebrew/Cellar/llvm/22.1.3/bin/../include/c++/v1/__iterator" "iterator.h"
	.file	20 "/opt/homebrew/Cellar/llvm/22.1.3/bin/../include/c++/v1/__iterator" "reverse_iterator.h"
	.file	21 "/opt/homebrew/Cellar/llvm/22.1.3/bin/../include/c++/v1/__iterator" "incrementable_traits.h"
	.file	22 "/opt/homebrew/Cellar/llvm/22.1.3/bin/../include/c++/v1/__type_traits" "integral_constant.h"
	.file	23 "/opt/homebrew/Cellar/llvm/22.1.3/bin/../include/c++/v1/__fwd" "string.h"
	.file	24 "/opt/homebrew/Cellar/llvm/22.1.3/bin/../include/c++/v1" "ios"
	.file	25 "/opt/homebrew/Cellar/llvm/22.1.3/bin/../include/c++/v1" "__locale"
	.file	26 "/opt/homebrew/Cellar/llvm/22.1.3/bin/../include/c++/v1/__utility" "private_constructor_tag.h"
	.file	27 "/opt/homebrew/Cellar/llvm/22.1.3/bin/../include/c++/v1/__memory" "shared_count.h"
	.file	28 "/opt/homebrew/Cellar/llvm/22.1.3/bin/../include/c++/v1/__mutex" "once_flag.h"
	.file	29 "/Library/Developer/CommandLineTools/SDKs/MacOSX26.sdk/usr/include/sys/_types" "_int32_t.h"
	.file	30 "/opt/homebrew/Cellar/llvm/22.1.3/bin/../include/c++/v1" "limits"
	.file	31 "/opt/homebrew/Cellar/llvm/22.1.3/bin/../include/c++/v1/__utility" "element_count.h"
	.file	32 "/opt/homebrew/Cellar/llvm/22.1.3/bin/../include/c++/v1/__new" "align_val_t.h"
	.file	33 "/opt/homebrew/Cellar/llvm/22.1.3/bin/../include/c++/v1" "streambuf"
	.file	34 "/opt/homebrew/Cellar/llvm/22.1.3/bin/../include/c++/v1" "iosfwd"
	.file	35 "/opt/homebrew/Cellar/llvm/22.1.3/bin/../include/c++/v1/__fwd" "ios.h"
	.file	36 "/opt/homebrew/Cellar/llvm/22.1.3/bin/../include/c++/v1/__fwd" "streambuf.h"
	.file	37 "/opt/homebrew/Cellar/llvm/22.1.3/bin/../include/c++/v1/__iterator" "ostreambuf_iterator.h"
	.file	38 "/opt/homebrew/Cellar/llvm/22.1.3/bin/../include/c++/v1/__ostream" "basic_ostream.h"
	.file	39 "/opt/homebrew/Cellar/llvm/22.1.3/bin/../include/c++/v1/__cstddef" "nullptr_t.h"
	.file	40 "/opt/homebrew/Cellar/llvm/22.1.3/bin/../include/c++/v1/__fwd" "ostream.h"
	.file	41 "/opt/homebrew/Cellar/llvm/22.1.3/bin/../include/c++/v1/__ostream" "put_character_sequence.h"
	.section	__TEXT,__text,regular,pure_instructions
	.globl	__Z4funcIiEvT_i                 ; -- Begin function _Z4funcIiEvT_i
	.p2align	2
__Z4funcIiEvT_i:                        ; @_Z4funcIiEvT_i
Lfunc_begin0:
	.cfi_startproc
; %bb.0:
	;DEBUG_VALUE: func<int>:a <- $w0
	;DEBUG_VALUE: func<int>:b <- $w1
	.loc	1 58 26 prologue_end            ; main.cpp:58:26
	ret
Ltmp33:
Lfunc_end0:
	.cfi_endproc
                                        ; -- End function
	.globl	__Z4testv                       ; -- Begin function _Z4testv
	.p2align	2
__Z4testv:                              ; @_Z4testv
Lfunc_begin1:
	.cfi_startproc
; %bb.0:
	.loc	38 438 10 prologue_end          ; /opt/homebrew/Cellar/llvm/22.1.3/bin/../include/c++/v1/__ostream/basic_ostream.h:438:10 @[ main.cpp:68:37 @[ main.cpp:71:15 ] ]
Lloh0:
	adrp	x0, __ZNSt3__14coutE@GOTPAGE
Lloh1:
	ldr	x0, [x0, __ZNSt3__14coutE@GOTPAGEOFF]
Ltmp34:
	;DEBUG_VALUE: operator<<<std::__1::char_traits<char> >:__os <- $x0
Lloh2:
	adrp	x1, l_.str.2@PAGE
Lloh3:
	add	x1, x1, l_.str.2@PAGEOFF
Ltmp35:
	;DEBUG_VALUE: operator<<<std::__1::char_traits<char> >:__str <- $x1
	mov	w2, #4                          ; =0x4
Ltmp36:
	b	__ZNSt3__124__put_character_sequenceB9nqe220103IcNS_11char_traitsIcEEEERNS_13basic_ostreamIT_T0_EES7_PKS4_m
Ltmp37:
	.loh AdrpAdd	Lloh2, Lloh3
	.loh AdrpLdrGot	Lloh0, Lloh1
Lfunc_end1:
	.cfi_endproc
                                        ; -- End function
	.globl	__Z4funcIiEvT_                  ; -- Begin function _Z4funcIiEvT_
	.p2align	2
__Z4funcIiEvT_:                         ; @_Z4funcIiEvT_
Lfunc_begin2:
	.cfi_startproc
; %bb.0:
	;DEBUG_VALUE: func<int>: <- $w0
	.loc	38 438 10 prologue_end          ; /opt/homebrew/Cellar/llvm/22.1.3/bin/../include/c++/v1/__ostream/basic_ostream.h:438:10 @[ main.cpp:80:15 ]
Lloh4:
	adrp	x0, __ZNSt3__14coutE@GOTPAGE
Ltmp38:
	;DEBUG_VALUE: func<int>: <- [DW_OP_LLVM_entry_value 1] $w0
Lloh5:
	ldr	x0, [x0, __ZNSt3__14coutE@GOTPAGEOFF]
Ltmp39:
	;DEBUG_VALUE: operator<<<std::__1::char_traits<char> >:__os <- $x0
Lloh6:
	adrp	x1, l_.str@PAGE
Lloh7:
	add	x1, x1, l_.str@PAGEOFF
Ltmp40:
	;DEBUG_VALUE: operator<<<std::__1::char_traits<char> >:__str <- $x1
	mov	w2, #16                         ; =0x10
Ltmp41:
	b	__ZNSt3__124__put_character_sequenceB9nqe220103IcNS_11char_traitsIcEEEERNS_13basic_ostreamIT_T0_EES7_PKS4_m
Ltmp42:
	.loh AdrpAdd	Lloh6, Lloh7
	.loh AdrpLdrGot	Lloh4, Lloh5
Lfunc_end2:
	.cfi_endproc
                                        ; -- End function
	.globl	__Z4funci                       ; -- Begin function _Z4funci
	.p2align	2
__Z4funci:                              ; @_Z4funci
Lfunc_begin3:
	.cfi_startproc
; %bb.0:
	;DEBUG_VALUE: func: <- $w0
	.loc	38 438 10 prologue_end          ; /opt/homebrew/Cellar/llvm/22.1.3/bin/../include/c++/v1/__ostream/basic_ostream.h:438:10 @[ main.cpp:83:28 ]
Lloh8:
	adrp	x0, __ZNSt3__14coutE@GOTPAGE
Ltmp43:
	;DEBUG_VALUE: func: <- [DW_OP_LLVM_entry_value 1] $w0
Lloh9:
	ldr	x0, [x0, __ZNSt3__14coutE@GOTPAGEOFF]
Ltmp44:
	;DEBUG_VALUE: operator<<<std::__1::char_traits<char> >:__os <- $x0
Lloh10:
	adrp	x1, l_.str.1@PAGE
Lloh11:
	add	x1, x1, l_.str.1@PAGEOFF
Ltmp45:
	;DEBUG_VALUE: operator<<<std::__1::char_traits<char> >:__str <- $x1
	mov	w2, #16                         ; =0x10
Ltmp46:
	b	__ZNSt3__124__put_character_sequenceB9nqe220103IcNS_11char_traitsIcEEEERNS_13basic_ostreamIT_T0_EES7_PKS4_m
Ltmp47:
	.loh AdrpAdd	Lloh10, Lloh11
	.loh AdrpLdrGot	Lloh8, Lloh9
Lfunc_end3:
	.cfi_endproc
                                        ; -- End function
	.globl	_main                           ; -- Begin function main
	.p2align	2
_main:                                  ; @main
Lfunc_begin4:
	.loc	1 148 0                         ; main.cpp:148:0
	.cfi_startproc
	.cfi_personality 155, ___gxx_personality_v0
	.cfi_lsda 16, Lexception0
; %bb.0:
	sub	sp, sp, #48
	stp	x20, x19, [sp, #16]             ; 16-byte Folded Spill
	stp	x29, x30, [sp, #32]             ; 16-byte Folded Spill
	add	x29, sp, #32
	.cfi_def_cfa w29, 16
	.cfi_offset w30, -8
	.cfi_offset w29, -16
	.cfi_offset w19, -24
	.cfi_offset w20, -32
Ltmp48:
	.file	42 "/opt/homebrew/Cellar/llvm/22.1.3/bin/../include/c++/v1" "typeinfo"
	.loc	42 312 42 prologue_end          ; /opt/homebrew/Cellar/llvm/22.1.3/bin/../include/c++/v1/typeinfo:312:42 @[ main.cpp:149:26 ]
Lloh12:
	adrp	x8, __ZTIPi@GOTPAGE
Lloh13:
	ldr	x8, [x8, __ZTIPi@GOTPAGEOFF]
Ltmp49:
	;DEBUG_VALUE: name:this <- $x8
Lloh14:
	ldr	x19, [x8, #8]
Ltmp50:
	;DEBUG_VALUE: operator<<<std::__1::char_traits<char> >:__str <- undef
	;DEBUG_VALUE: length:__s <- undef
	;DEBUG_VALUE: __constexpr_strlen<char>:__str <- undef
	;DEBUG_VALUE: __type_name_to_string:__v <- $x19
	.loc	42 235 46                       ; /opt/homebrew/Cellar/llvm/22.1.3/bin/../include/c++/v1/typeinfo:235:46 @[ /opt/homebrew/Cellar/llvm/22.1.3/bin/../include/c++/v1/typeinfo:312:12 @[ main.cpp:149:26 ] ]
	and	x0, x19, #0x7fffffffffffffff
Ltmp51:
	.file	43 "/opt/homebrew/Cellar/llvm/22.1.3/bin/../include/c++/v1/__string" "constexpr_c_functions.h"
	.loc	43 62 10                        ; /opt/homebrew/Cellar/llvm/22.1.3/bin/../include/c++/v1/__string/constexpr_c_functions.h:62:10 @[ /opt/homebrew/Cellar/llvm/22.1.3/bin/../include/c++/v1/__string/char_traits.h:132:12 @[ /opt/homebrew/Cellar/llvm/22.1.3/bin/../include/c++/v1/__ostream/basic_ostream.h:438:53 @[ main.cpp:149:10 ] ] ]
	bl	_strlen
Ltmp52:
	.loc	43 62 10                        ; /opt/homebrew/Cellar/llvm/22.1.3/bin/../include/c++/v1/__string/constexpr_c_functions.h:62:10 @[ /opt/homebrew/Cellar/llvm/22.1.3/bin/../include/c++/v1/__string/char_traits.h:132:12 @[ /opt/homebrew/Cellar/llvm/22.1.3/bin/../include/c++/v1/__ostream/basic_ostream.h:438:53 @[ main.cpp:149:10 ] ] ]
	mov	x2, x0
Ltmp53:
	.loc	38 438 10                       ; /opt/homebrew/Cellar/llvm/22.1.3/bin/../include/c++/v1/__ostream/basic_ostream.h:438:10 @[ main.cpp:149:10 ]
Lloh15:
	adrp	x0, __ZNSt3__14coutE@GOTPAGE
Lloh16:
	ldr	x0, [x0, __ZNSt3__14coutE@GOTPAGEOFF]
Ltmp54:
	;DEBUG_VALUE: operator<<<std::__1::char_traits<char> >:__os <- $x0
	.loc	42 235 46                       ; /opt/homebrew/Cellar/llvm/22.1.3/bin/../include/c++/v1/typeinfo:235:46 @[ /opt/homebrew/Cellar/llvm/22.1.3/bin/../include/c++/v1/typeinfo:312:12 @[ main.cpp:149:26 ] ]
	and	x1, x19, #0x7fffffffffffffff
Ltmp55:
	.loc	38 438 10                       ; /opt/homebrew/Cellar/llvm/22.1.3/bin/../include/c++/v1/__ostream/basic_ostream.h:438:10 @[ main.cpp:149:10 ]
	bl	__ZNSt3__124__put_character_sequenceB9nqe220103IcNS_11char_traitsIcEEEERNS_13basic_ostreamIT_T0_EES7_PKS4_m
Ltmp56:
	.loc	38 438 10                       ; /opt/homebrew/Cellar/llvm/22.1.3/bin/../include/c++/v1/__ostream/basic_ostream.h:438:10 @[ main.cpp:149:10 ]
	mov	x19, x0
Ltmp57:
	;DEBUG_VALUE: operator<<:this <- $x19
	;DEBUG_VALUE: endl<char, std::__1::char_traits<char> >:__os <- $x19
	;DEBUG_VALUE: operator<<:__pf <- undef
	.loc	38 543 12 is_stmt 0             ; /opt/homebrew/Cellar/llvm/22.1.3/bin/../include/c++/v1/__ostream/basic_ostream.h:543:12 @[ /opt/homebrew/Cellar/llvm/22.1.3/bin/../include/c++/v1/__ostream/basic_ostream.h:80:12 @[ main.cpp:149:33 ] ]
	ldr	x8, [x0]
	ldur	x9, [x8, #-24]
Ltmp58:
	;DEBUG_VALUE: widen:this <- undef
	;DEBUG_VALUE: widen:__c <- 10
	.loc	24 696 44                       ; /opt/homebrew/Cellar/llvm/22.1.3/bin/../include/c++/v1/ios:696:44 @[ /opt/homebrew/Cellar/llvm/22.1.3/bin/../include/c++/v1/__ostream/basic_ostream.h:543:17 @[ /opt/homebrew/Cellar/llvm/22.1.3/bin/../include/c++/v1/__ostream/basic_ostream.h:80:12 @[ main.cpp:149:33 ] ] ]
	add	x8, sp, #8
Ltmp59:
	.loc	38 543 12                       ; /opt/homebrew/Cellar/llvm/22.1.3/bin/../include/c++/v1/__ostream/basic_ostream.h:543:12 @[ /opt/homebrew/Cellar/llvm/22.1.3/bin/../include/c++/v1/__ostream/basic_ostream.h:80:12 @[ main.cpp:149:33 ] ]
	add	x0, x0, x9
Ltmp60:
	.loc	24 696 44 is_stmt 1             ; /opt/homebrew/Cellar/llvm/22.1.3/bin/../include/c++/v1/ios:696:44 @[ /opt/homebrew/Cellar/llvm/22.1.3/bin/../include/c++/v1/__ostream/basic_ostream.h:543:17 @[ /opt/homebrew/Cellar/llvm/22.1.3/bin/../include/c++/v1/__ostream/basic_ostream.h:80:12 @[ main.cpp:149:33 ] ] ]
	bl	__ZNKSt3__18ios_base6getlocEv
Ltmp61:
	;DEBUG_VALUE: widen:__c <- 10
Ltmp0:                                  ; EH_LABEL
	;DEBUG_VALUE: use_facet<std::__1::ctype<char> >:__l <- [DW_OP_plus_uconst 8, DW_OP_stack_value] $sp
	.loc	25 177 42                       ; /opt/homebrew/Cellar/llvm/22.1.3/bin/../include/c++/v1/__locale:177:42 @[ /opt/homebrew/Cellar/llvm/22.1.3/bin/../include/c++/v1/ios:696:10 @[ /opt/homebrew/Cellar/llvm/22.1.3/bin/../include/c++/v1/__ostream/basic_ostream.h:543:17 @[ /opt/homebrew/Cellar/llvm/22.1.3/bin/../include/c++/v1/__ostream/basic_ostream.h:80:12 @[ main.cpp:149:33 ] ] ] ]
Lloh17:
	adrp	x1, __ZNSt3__15ctypeIcE2idE@GOTPAGE
Lloh18:
	ldr	x1, [x1, __ZNSt3__15ctypeIcE2idE@GOTPAGEOFF]
	add	x0, sp, #8
	bl	__ZNKSt3__16locale9use_facetERNS0_2idE
Ltmp62:
Ltmp1:                                  ; EH_LABEL
; %bb.1:                                ; %_ZNSt3__19use_facetB9nqe220103INS_5ctypeIcEEEERKT_RKNS_6localeE.exit.i.i
	;DEBUG_VALUE: widen:__c <- 10
	;DEBUG_VALUE: endl<char, std::__1::char_traits<char> >:__os <- $x19
	;DEBUG_VALUE: operator<<:this <- $x19
	;DEBUG_VALUE: widen:this <- $x0
	;DEBUG_VALUE: widen:__c <- 10
	.loc	25 569 185                      ; /opt/homebrew/Cellar/llvm/22.1.3/bin/../include/c++/v1/__locale:569:185 @[ /opt/homebrew/Cellar/llvm/22.1.3/bin/../include/c++/v1/ios:696:54 @[ /opt/homebrew/Cellar/llvm/22.1.3/bin/../include/c++/v1/__ostream/basic_ostream.h:543:17 @[ /opt/homebrew/Cellar/llvm/22.1.3/bin/../include/c++/v1/__ostream/basic_ostream.h:80:12 @[ main.cpp:149:33 ] ] ] ]
	ldr	x8, [x0]
	ldr	x8, [x8, #56]
Ltmp2:                                  ; EH_LABEL
	mov	w1, #10                         ; =0xa
	blr	x8
Ltmp63:
Ltmp3:                                  ; EH_LABEL
; %bb.2:                                ; %_ZNSt3__14endlB9nqe220103IcNS_11char_traitsIcEEEERNS_13basic_ostreamIT_T0_EES7_.exit
	;DEBUG_VALUE: widen:__c <- 10
	;DEBUG_VALUE: endl<char, std::__1::char_traits<char> >:__os <- $x19
	;DEBUG_VALUE: operator<<:this <- $x19
	.loc	24 696 0                        ; /opt/homebrew/Cellar/llvm/22.1.3/bin/../include/c++/v1/ios:696 @[ /opt/homebrew/Cellar/llvm/22.1.3/bin/../include/c++/v1/__ostream/basic_ostream.h:543:17 @[ /opt/homebrew/Cellar/llvm/22.1.3/bin/../include/c++/v1/__ostream/basic_ostream.h:80:12 @[ main.cpp:149:33 ] ] ]
	mov	x20, x0
	.loc	24 696 3 is_stmt 0              ; /opt/homebrew/Cellar/llvm/22.1.3/bin/../include/c++/v1/ios:696:3 @[ /opt/homebrew/Cellar/llvm/22.1.3/bin/../include/c++/v1/__ostream/basic_ostream.h:543:17 @[ /opt/homebrew/Cellar/llvm/22.1.3/bin/../include/c++/v1/__ostream/basic_ostream.h:80:12 @[ main.cpp:149:33 ] ] ]
	add	x0, sp, #8
	bl	__ZNSt3__16localeD1Ev
Ltmp64:
	.loc	38 543 8 is_stmt 1              ; /opt/homebrew/Cellar/llvm/22.1.3/bin/../include/c++/v1/__ostream/basic_ostream.h:543:8 @[ /opt/homebrew/Cellar/llvm/22.1.3/bin/../include/c++/v1/__ostream/basic_ostream.h:80:12 @[ main.cpp:149:33 ] ]
	mov	x0, x19
	mov	x1, x20
	bl	__ZNSt3__113basic_ostreamIcNS_11char_traitsIcEEE3putEc
Ltmp65:
	.loc	38 544 8                        ; /opt/homebrew/Cellar/llvm/22.1.3/bin/../include/c++/v1/__ostream/basic_ostream.h:544:8 @[ /opt/homebrew/Cellar/llvm/22.1.3/bin/../include/c++/v1/__ostream/basic_ostream.h:80:12 @[ main.cpp:149:33 ] ]
	mov	x0, x19
	bl	__ZNSt3__113basic_ostreamIcNS_11char_traitsIcEEE5flushEv
Ltmp66:
	.loc	1 153 1                         ; main.cpp:153:1
	mov	w0, #0                          ; =0x0
	.loc	1 153 1 epilogue_begin is_stmt 0 ; main.cpp:153:1
	ldp	x29, x30, [sp, #32]             ; 16-byte Folded Reload
	ldp	x20, x19, [sp, #16]             ; 16-byte Folded Reload
Ltmp67:
	add	sp, sp, #48
	ret
Ltmp68:
LBB4_3:
	;DEBUG_VALUE: widen:__c <- 10
	;DEBUG_VALUE: endl<char, std::__1::char_traits<char> >:__os <- $x19
	;DEBUG_VALUE: operator<<:this <- $x19
Ltmp4:                                  ; EH_LABEL
	.loc	1 0 1                           ; main.cpp:0:1
	mov	x19, x0
Ltmp69:
	.loc	24 696 3 is_stmt 1              ; /opt/homebrew/Cellar/llvm/22.1.3/bin/../include/c++/v1/ios:696:3 @[ /opt/homebrew/Cellar/llvm/22.1.3/bin/../include/c++/v1/__ostream/basic_ostream.h:543:17 @[ /opt/homebrew/Cellar/llvm/22.1.3/bin/../include/c++/v1/__ostream/basic_ostream.h:80:12 @[ main.cpp:149:33 ] ] ]
	add	x0, sp, #8
	bl	__ZNSt3__16localeD1Ev
Ltmp70:
	.loc	24 0 3 is_stmt 0                ; /opt/homebrew/Cellar/llvm/22.1.3/bin/../include/c++/v1/ios:0:3
	mov	x0, x19
	bl	__Unwind_Resume
Ltmp71:
	.loh AdrpLdrGot	Lloh17, Lloh18
	.loh AdrpLdrGot	Lloh15, Lloh16
	.loh AdrpLdrGotLdr	Lloh12, Lloh13, Lloh14
Lfunc_end4:
	.cfi_endproc
	.file	44 "/Library/Developer/CommandLineTools/SDKs/MacOSX26.sdk/usr/include/sys/_types" "_uintptr_t.h"
	.file	45 "/Library/Developer/CommandLineTools/SDKs/MacOSX26.sdk/usr/include/_types" "_uint32_t.h"
	.section	__TEXT,__gcc_except_tab
	.p2align	2, 0x0
GCC_except_table4:
Lexception0:
	.byte	255                             ; @LPStart Encoding = omit
	.byte	255                             ; @TType Encoding = omit
	.byte	1                               ; Call site Encoding = uleb128
	.uleb128 Lcst_end0-Lcst_begin0
Lcst_begin0:
	.uleb128 Lfunc_begin4-Lfunc_begin4      ; >> Call Site 1 <<
	.uleb128 Ltmp0-Lfunc_begin4             ;   Call between Lfunc_begin4 and Ltmp0
	.byte	0                               ;     has no landing pad
	.byte	0                               ;   On action: cleanup
	.uleb128 Ltmp0-Lfunc_begin4             ; >> Call Site 2 <<
	.uleb128 Ltmp3-Ltmp0                    ;   Call between Ltmp0 and Ltmp3
	.uleb128 Ltmp4-Lfunc_begin4             ;     jumps to Ltmp4
	.byte	0                               ;   On action: cleanup
	.uleb128 Ltmp3-Lfunc_begin4             ; >> Call Site 3 <<
	.uleb128 Lfunc_end4-Ltmp3               ;   Call between Ltmp3 and Lfunc_end4
	.byte	0                               ;     has no landing pad
	.byte	0                               ;   On action: cleanup
Lcst_end0:
	.p2align	2, 0x0
                                        ; -- End function
	.section	__TEXT,__text,regular,pure_instructions
	.private_extern	__ZNSt3__124__put_character_sequenceB9nqe220103IcNS_11char_traitsIcEEEERNS_13basic_ostreamIT_T0_EES7_PKS4_m ; -- Begin function _ZNSt3__124__put_character_sequenceB9nqe220103IcNS_11char_traitsIcEEEERNS_13basic_ostreamIT_T0_EES7_PKS4_m
	.globl	__ZNSt3__124__put_character_sequenceB9nqe220103IcNS_11char_traitsIcEEEERNS_13basic_ostreamIT_T0_EES7_PKS4_m
	.weak_def_can_be_hidden	__ZNSt3__124__put_character_sequenceB9nqe220103IcNS_11char_traitsIcEEEERNS_13basic_ostreamIT_T0_EES7_PKS4_m
	.p2align	2
__ZNSt3__124__put_character_sequenceB9nqe220103IcNS_11char_traitsIcEEEERNS_13basic_ostreamIT_T0_EES7_PKS4_m: ; @_ZNSt3__124__put_character_sequenceB9nqe220103IcNS_11char_traitsIcEEEERNS_13basic_ostreamIT_T0_EES7_PKS4_m
Lfunc_begin5:
	.loc	41 30 0 is_stmt 1               ; /opt/homebrew/Cellar/llvm/22.1.3/bin/../include/c++/v1/__ostream/put_character_sequence.h:30:0
	.cfi_startproc
	.cfi_personality 155, ___gxx_personality_v0
	.cfi_lsda 16, Lexception1
; %bb.0:
	;DEBUG_VALUE: __put_character_sequence<char, std::__1::char_traits<char> >:__os <- $x0
	;DEBUG_VALUE: __put_character_sequence<char, std::__1::char_traits<char> >:__str <- $x1
	;DEBUG_VALUE: __put_character_sequence<char, std::__1::char_traits<char> >:__len <- $x2
	sub	sp, sp, #112
	stp	x26, x25, [sp, #32]             ; 16-byte Folded Spill
	stp	x24, x23, [sp, #48]             ; 16-byte Folded Spill
	stp	x22, x21, [sp, #64]             ; 16-byte Folded Spill
	stp	x20, x19, [sp, #80]             ; 16-byte Folded Spill
	stp	x29, x30, [sp, #96]             ; 16-byte Folded Spill
	add	x29, sp, #96
	.cfi_def_cfa w29, 16
	.cfi_offset w30, -8
	.cfi_offset w29, -16
	.cfi_offset w19, -24
	.cfi_offset w20, -32
	.cfi_offset w21, -40
	.cfi_offset w22, -48
	.cfi_offset w23, -56
	.cfi_offset w24, -64
	.cfi_offset w25, -72
	.cfi_offset w26, -80
	mov	x21, x2
Ltmp72:
	;DEBUG_VALUE: __put_character_sequence<char, std::__1::char_traits<char> >:__len <- $x21
	mov	x20, x1
Ltmp73:
	;DEBUG_VALUE: __put_character_sequence<char, std::__1::char_traits<char> >:__str <- $x20
	mov	x19, x0
Ltmp74:
	;DEBUG_VALUE: __put_character_sequence<char, std::__1::char_traits<char> >:__os <- $x19
	;DEBUG_VALUE: failed:this <- undef
	;DEBUG_VALUE: ostreambuf_iterator:this <- undef
	;DEBUG_VALUE: ostreambuf_iterator:this <- undef
Ltmp5:                                  ; EH_LABEL
	.loc	41 34 53 prologue_end           ; /opt/homebrew/Cellar/llvm/22.1.3/bin/../include/c++/v1/__ostream/put_character_sequence.h:34:53
	add	x0, sp, #8
	mov	x1, x19
	bl	__ZNSt3__113basic_ostreamIcNS_11char_traitsIcEEE6sentryC1ERS3_
Ltmp75:
Ltmp6:                                  ; EH_LABEL
; %bb.1:
	;DEBUG_VALUE: __put_character_sequence<char, std::__1::char_traits<char> >:__os <- $x19
	;DEBUG_VALUE: __put_character_sequence<char, std::__1::char_traits<char> >:__str <- $x20
	;DEBUG_VALUE: __put_character_sequence<char, std::__1::char_traits<char> >:__len <- $x21
	;DEBUG_VALUE: operator bool:this <- [DW_OP_plus_uconst 8, DW_OP_stack_value] $sp
	.loc	38 196 184                      ; /opt/homebrew/Cellar/llvm/22.1.3/bin/../include/c++/v1/__ostream/basic_ostream.h:196:184 @[ /opt/homebrew/Cellar/llvm/22.1.3/bin/../include/c++/v1/__ostream/put_character_sequence.h:35:9 ]
	ldrb	w8, [sp, #8]
Ltmp76:
	.loc	41 35 9                         ; /opt/homebrew/Cellar/llvm/22.1.3/bin/../include/c++/v1/__ostream/put_character_sequence.h:35:9
	cmp	w8, #1
	b.ne	LBB5_10
Ltmp77:
; %bb.2:
	;DEBUG_VALUE: __put_character_sequence<char, std::__1::char_traits<char> >:__os <- $x19
	;DEBUG_VALUE: __put_character_sequence<char, std::__1::char_traits<char> >:__str <- $x20
	;DEBUG_VALUE: __put_character_sequence<char, std::__1::char_traits<char> >:__len <- $x21
	;DEBUG_VALUE: ostreambuf_iterator:this <- undef
	;DEBUG_VALUE: ostreambuf_iterator:this <- undef
	;DEBUG_VALUE: ostreambuf_iterator:__s <- $x19
	;DEBUG_VALUE: ostreambuf_iterator:__s <- $x19
	.loc	37 50 202 is_stmt 0             ; /opt/homebrew/Cellar/llvm/22.1.3/bin/../include/c++/v1/__iterator/ostreambuf_iterator.h:50:202 @[ /opt/homebrew/Cellar/llvm/22.1.3/bin/../include/c++/v1/__iterator/ostreambuf_iterator.h:50:215 @[ /opt/homebrew/Cellar/llvm/22.1.3/bin/../include/c++/v1/__ostream/put_character_sequence.h:38:15 ] ]
	ldr	x8, [x19]
	ldur	x8, [x8, #-24]
	add	x4, x19, x8
Ltmp78:
	;DEBUG_VALUE: rdbuf:this <- $x4
	;DEBUG_VALUE: rdbuf:this <- $x4
	.loc	24 374 173 is_stmt 1            ; /opt/homebrew/Cellar/llvm/22.1.3/bin/../include/c++/v1/ios:374:173 @[ /opt/homebrew/Cellar/llvm/22.1.3/bin/../include/c++/v1/ios:669:74 @[ /opt/homebrew/Cellar/llvm/22.1.3/bin/../include/c++/v1/__iterator/ostreambuf_iterator.h:50:206 @[ /opt/homebrew/Cellar/llvm/22.1.3/bin/../include/c++/v1/__iterator/ostreambuf_iterator.h:50:215 @[ /opt/homebrew/Cellar/llvm/22.1.3/bin/../include/c++/v1/__ostream/put_character_sequence.h:38:15 ] ] ] ]
	ldr	x22, [x4, #40]
Ltmp79:
	;DEBUG_VALUE: flags:this <- $x4
	.loc	24 462 201                      ; /opt/homebrew/Cellar/llvm/22.1.3/bin/../include/c++/v1/ios:462:201 @[ /opt/homebrew/Cellar/llvm/22.1.3/bin/../include/c++/v1/__ostream/put_character_sequence.h:40:21 ]
	ldr	w24, [x4, #8]
Ltmp80:
	;DEBUG_VALUE: fill:this <- $x4
	;DEBUG_VALUE: __is_set:this <- [DW_OP_plus_uconst 144, DW_OP_stack_value] $x4
	.loc	24 554 175 is_stmt 0            ; /opt/homebrew/Cellar/llvm/22.1.3/bin/../include/c++/v1/ios:554:175 @[ /opt/homebrew/Cellar/llvm/22.1.3/bin/../include/c++/v1/ios:701:16 @[ /opt/homebrew/Cellar/llvm/22.1.3/bin/../include/c++/v1/__ostream/put_character_sequence.h:43:20 ] ]
	ldr	w8, [x4, #144]
Ltmp81:
	.loc	24 701 7 is_stmt 1              ; /opt/homebrew/Cellar/llvm/22.1.3/bin/../include/c++/v1/ios:701:7 @[ /opt/homebrew/Cellar/llvm/22.1.3/bin/../include/c++/v1/__ostream/put_character_sequence.h:43:20 ]
	cmn	w8, #1
	b.ne	LBB5_7
Ltmp82:
; %bb.3:
	;DEBUG_VALUE: fill:this <- $x4
	;DEBUG_VALUE: __put_character_sequence<char, std::__1::char_traits<char> >:__os <- $x19
	;DEBUG_VALUE: __put_character_sequence<char, std::__1::char_traits<char> >:__str <- $x20
	;DEBUG_VALUE: __put_character_sequence<char, std::__1::char_traits<char> >:__len <- $x21
Ltmp8:                                  ; EH_LABEL
	;DEBUG_VALUE: widen:this <- $x4
	;DEBUG_VALUE: widen:__c <- 32
	.loc	24 696 44                       ; /opt/homebrew/Cellar/llvm/22.1.3/bin/../include/c++/v1/ios:696:44 @[ /opt/homebrew/Cellar/llvm/22.1.3/bin/../include/c++/v1/ios:702:15 @[ /opt/homebrew/Cellar/llvm/22.1.3/bin/../include/c++/v1/__ostream/put_character_sequence.h:43:20 ] ]
	add	x8, sp, #24
	mov	x25, x4
Ltmp83:
	;DEBUG_VALUE: widen:this <- $x25
	mov	x0, x4
	bl	__ZNKSt3__18ios_base6getlocEv
Ltmp84:
Ltmp9:                                  ; EH_LABEL
; %bb.4:                                ; %.noexc
	;DEBUG_VALUE: widen:this <- $x25
	;DEBUG_VALUE: widen:__c <- 32
	;DEBUG_VALUE: __put_character_sequence<char, std::__1::char_traits<char> >:__os <- $x19
	;DEBUG_VALUE: __put_character_sequence<char, std::__1::char_traits<char> >:__str <- $x20
	;DEBUG_VALUE: __put_character_sequence<char, std::__1::char_traits<char> >:__len <- $x21
Ltmp10:                                 ; EH_LABEL
	;DEBUG_VALUE: use_facet<std::__1::ctype<char> >:__l <- [DW_OP_plus_uconst 24, DW_OP_stack_value] $sp
	.loc	25 177 42                       ; /opt/homebrew/Cellar/llvm/22.1.3/bin/../include/c++/v1/__locale:177:42 @[ /opt/homebrew/Cellar/llvm/22.1.3/bin/../include/c++/v1/ios:696:10 @[ /opt/homebrew/Cellar/llvm/22.1.3/bin/../include/c++/v1/ios:702:15 @[ /opt/homebrew/Cellar/llvm/22.1.3/bin/../include/c++/v1/__ostream/put_character_sequence.h:43:20 ] ] ]
Lloh19:
	adrp	x1, __ZNSt3__15ctypeIcE2idE@GOTPAGE
Lloh20:
	ldr	x1, [x1, __ZNSt3__15ctypeIcE2idE@GOTPAGEOFF]
	add	x0, sp, #24
	bl	__ZNKSt3__16locale9use_facetERNS0_2idE
Ltmp85:
Ltmp11:                                 ; EH_LABEL
; %bb.5:                                ; %_ZNSt3__19use_facetB9nqe220103INS_5ctypeIcEEEERKT_RKNS_6localeE.exit.i.i
	;DEBUG_VALUE: widen:this <- $x25
	;DEBUG_VALUE: widen:__c <- 32
	;DEBUG_VALUE: __put_character_sequence<char, std::__1::char_traits<char> >:__os <- $x19
	;DEBUG_VALUE: __put_character_sequence<char, std::__1::char_traits<char> >:__str <- $x20
	;DEBUG_VALUE: __put_character_sequence<char, std::__1::char_traits<char> >:__len <- $x21
	;DEBUG_VALUE: widen:this <- $x0
	;DEBUG_VALUE: widen:__c <- 32
	.loc	25 569 185                      ; /opt/homebrew/Cellar/llvm/22.1.3/bin/../include/c++/v1/__locale:569:185 @[ /opt/homebrew/Cellar/llvm/22.1.3/bin/../include/c++/v1/ios:696:54 @[ /opt/homebrew/Cellar/llvm/22.1.3/bin/../include/c++/v1/ios:702:15 @[ /opt/homebrew/Cellar/llvm/22.1.3/bin/../include/c++/v1/__ostream/put_character_sequence.h:43:20 ] ] ]
	ldr	x8, [x0]
	ldr	x8, [x8, #56]
Ltmp12:                                 ; EH_LABEL
	mov	w1, #32                         ; =0x20
	blr	x8
Ltmp86:
Ltmp13:                                 ; EH_LABEL
; %bb.6:                                ; %_ZNKSt3__19basic_iosIcNS_11char_traitsIcEEE5widenB9nqe220103Ec.exit.i
	;DEBUG_VALUE: widen:this <- $x25
	;DEBUG_VALUE: widen:__c <- 32
	;DEBUG_VALUE: __put_character_sequence<char, std::__1::char_traits<char> >:__os <- $x19
	;DEBUG_VALUE: __put_character_sequence<char, std::__1::char_traits<char> >:__str <- $x20
	;DEBUG_VALUE: __put_character_sequence<char, std::__1::char_traits<char> >:__len <- $x21
	.loc	24 696 0                        ; /opt/homebrew/Cellar/llvm/22.1.3/bin/../include/c++/v1/ios:696 @[ /opt/homebrew/Cellar/llvm/22.1.3/bin/../include/c++/v1/ios:702:15 @[ /opt/homebrew/Cellar/llvm/22.1.3/bin/../include/c++/v1/__ostream/put_character_sequence.h:43:20 ] ]
	mov	x23, x0
	.loc	24 696 3 is_stmt 0              ; /opt/homebrew/Cellar/llvm/22.1.3/bin/../include/c++/v1/ios:696:3 @[ /opt/homebrew/Cellar/llvm/22.1.3/bin/../include/c++/v1/ios:702:15 @[ /opt/homebrew/Cellar/llvm/22.1.3/bin/../include/c++/v1/__ostream/put_character_sequence.h:43:20 ] ]
	add	x0, sp, #24
	bl	__ZNSt3__16localeD1Ev
Ltmp87:
	.loc	24 0 3                          ; /opt/homebrew/Cellar/llvm/22.1.3/bin/../include/c++/v1/ios:0:3
	mov	x4, x25
Ltmp88:
	;DEBUG_VALUE: operator=:__x <- $w23
	;DEBUG_VALUE: operator=:this <- [DW_OP_plus_uconst 144, DW_OP_stack_value] $x4
	.loc	24 551 17 is_stmt 1             ; /opt/homebrew/Cellar/llvm/22.1.3/bin/../include/c++/v1/ios:551:17 @[ /opt/homebrew/Cellar/llvm/22.1.3/bin/../include/c++/v1/ios:702:13 @[ /opt/homebrew/Cellar/llvm/22.1.3/bin/../include/c++/v1/__ostream/put_character_sequence.h:43:20 ] ]
	str	w23, [x25, #144]
Ltmp89:
LBB5_7:                                 ; %_ZNKSt3__19basic_iosIcNS_11char_traitsIcEEE4fillB9nqe220103Ev.exit
	;DEBUG_VALUE: __put_character_sequence<char, std::__1::char_traits<char> >:__os <- $x19
	;DEBUG_VALUE: __put_character_sequence<char, std::__1::char_traits<char> >:__str <- $x20
	;DEBUG_VALUE: __put_character_sequence<char, std::__1::char_traits<char> >:__len <- $x21
	;DEBUG_VALUE: __get:this <- [DW_OP_plus_uconst 144, DW_OP_stack_value] $x4
	.loc	24 555 194                      ; /opt/homebrew/Cellar/llvm/22.1.3/bin/../include/c++/v1/ios:555:194 @[ /opt/homebrew/Cellar/llvm/22.1.3/bin/../include/c++/v1/ios:703:18 @[ /opt/homebrew/Cellar/llvm/22.1.3/bin/../include/c++/v1/__ostream/put_character_sequence.h:43:20 ] ]
	ldrsb	w5, [x4, #144]
	mov	w8, #176                        ; =0xb0
Ltmp90:
	.loc	41 40 29                        ; /opt/homebrew/Cellar/llvm/22.1.3/bin/../include/c++/v1/__ostream/put_character_sequence.h:40:29
	and	w8, w24, w8
	.loc	41 40 15 is_stmt 0              ; /opt/homebrew/Cellar/llvm/22.1.3/bin/../include/c++/v1/__ostream/put_character_sequence.h:40:15
	add	x3, x20, x21
	cmp	w8, #32
	csel	x2, x3, x20, eq
Ltmp15:                                 ; EH_LABEL
	.loc	41 37 11 is_stmt 1              ; /opt/homebrew/Cellar/llvm/22.1.3/bin/../include/c++/v1/__ostream/put_character_sequence.h:37:11
	mov	x0, x22
	mov	x1, x20
	bl	__ZNSt3__116__pad_and_outputB9nqe220103IcNS_11char_traitsIcEEEENS_19ostreambuf_iteratorIT_T0_EES6_PKS4_S8_S8_RNS_8ios_baseES4_
Ltmp91:
Ltmp16:                                 ; EH_LABEL
; %bb.8:
	;DEBUG_VALUE: __put_character_sequence<char, std::__1::char_traits<char> >:__os <- $x19
	;DEBUG_VALUE: __put_character_sequence<char, std::__1::char_traits<char> >:__str <- $x20
	;DEBUG_VALUE: __put_character_sequence<char, std::__1::char_traits<char> >:__len <- $x21
	;DEBUG_VALUE: failed:this <- undef
	.loc	41 37 11                        ; /opt/homebrew/Cellar/llvm/22.1.3/bin/../include/c++/v1/__ostream/put_character_sequence.h:37:11
	cbnz	x0, LBB5_10
Ltmp92:
; %bb.9:
	;DEBUG_VALUE: __put_character_sequence<char, std::__1::char_traits<char> >:__os <- $x19
	;DEBUG_VALUE: __put_character_sequence<char, std::__1::char_traits<char> >:__str <- $x20
	;DEBUG_VALUE: __put_character_sequence<char, std::__1::char_traits<char> >:__len <- $x21
	.loc	41 45 9 is_stmt 0               ; /opt/homebrew/Cellar/llvm/22.1.3/bin/../include/c++/v1/__ostream/put_character_sequence.h:45:9
	ldr	x8, [x19]
	ldur	x8, [x8, #-24]
	add	x0, x19, x8
Ltmp93:
	;DEBUG_VALUE: setstate:this <- $x0
	;DEBUG_VALUE: setstate:this <- $x0
	;DEBUG_VALUE: setstate:__state <- 5
	;DEBUG_VALUE: setstate:__state <- 5
	.loc	24 509 198 is_stmt 1            ; /opt/homebrew/Cellar/llvm/22.1.3/bin/../include/c++/v1/ios:509:198 @[ /opt/homebrew/Cellar/llvm/22.1.3/bin/../include/c++/v1/ios:586:187 @[ /opt/homebrew/Cellar/llvm/22.1.3/bin/../include/c++/v1/__ostream/put_character_sequence.h:45:14 ] ]
	ldr	w8, [x0, #32]
	mov	w9, #5                          ; =0x5
Ltmp18:                                 ; EH_LABEL
	.loc	24 509 209 is_stmt 0            ; /opt/homebrew/Cellar/llvm/22.1.3/bin/../include/c++/v1/ios:509:209 @[ /opt/homebrew/Cellar/llvm/22.1.3/bin/../include/c++/v1/ios:586:187 @[ /opt/homebrew/Cellar/llvm/22.1.3/bin/../include/c++/v1/__ostream/put_character_sequence.h:45:14 ] ]
	orr	w1, w8, w9
	.loc	24 509 192                      ; /opt/homebrew/Cellar/llvm/22.1.3/bin/../include/c++/v1/ios:509:192 @[ /opt/homebrew/Cellar/llvm/22.1.3/bin/../include/c++/v1/ios:586:187 @[ /opt/homebrew/Cellar/llvm/22.1.3/bin/../include/c++/v1/__ostream/put_character_sequence.h:45:14 ] ]
	bl	__ZNSt3__18ios_base5clearEj
Ltmp94:
Ltmp19:                                 ; EH_LABEL
LBB5_10:                                ; %_ZNSt3__19basic_iosIcNS_11char_traitsIcEEE8setstateB9nqe220103Ej.exit
	;DEBUG_VALUE: __put_character_sequence<char, std::__1::char_traits<char> >:__os <- $x19
	;DEBUG_VALUE: __put_character_sequence<char, std::__1::char_traits<char> >:__str <- $x20
	;DEBUG_VALUE: __put_character_sequence<char, std::__1::char_traits<char> >:__len <- $x21
	.loc	41 48 3 is_stmt 1               ; /opt/homebrew/Cellar/llvm/22.1.3/bin/../include/c++/v1/__ostream/put_character_sequence.h:48:3
	add	x0, sp, #8
	bl	__ZNSt3__113basic_ostreamIcNS_11char_traitsIcEEE6sentryD1Ev
Ltmp95:
LBB5_11:
	;DEBUG_VALUE: __put_character_sequence<char, std::__1::char_traits<char> >:__os <- $x19
	;DEBUG_VALUE: __put_character_sequence<char, std::__1::char_traits<char> >:__len <- $x21
	.loc	41 52 3                         ; /opt/homebrew/Cellar/llvm/22.1.3/bin/../include/c++/v1/__ostream/put_character_sequence.h:52:3
	mov	x0, x19
	.loc	41 52 3 epilogue_begin is_stmt 0 ; /opt/homebrew/Cellar/llvm/22.1.3/bin/../include/c++/v1/__ostream/put_character_sequence.h:52:3
	ldp	x29, x30, [sp, #96]             ; 16-byte Folded Reload
	ldp	x20, x19, [sp, #80]             ; 16-byte Folded Reload
Ltmp96:
	;DEBUG_VALUE: __put_character_sequence<char, std::__1::char_traits<char> >:__os <- [DW_OP_LLVM_entry_value 1] $x0
	ldp	x22, x21, [sp, #64]             ; 16-byte Folded Reload
Ltmp97:
	;DEBUG_VALUE: __put_character_sequence<char, std::__1::char_traits<char> >:__len <- [DW_OP_LLVM_entry_value 1] $x2
	ldp	x24, x23, [sp, #48]             ; 16-byte Folded Reload
	ldp	x26, x25, [sp, #32]             ; 16-byte Folded Reload
	add	sp, sp, #112
	ret
Ltmp98:
LBB5_12:
	;DEBUG_VALUE: setstate:__state <- 5
	;DEBUG_VALUE: setstate:__state <- 5
	;DEBUG_VALUE: __put_character_sequence<char, std::__1::char_traits<char> >:__os <- $x19
	;DEBUG_VALUE: __put_character_sequence<char, std::__1::char_traits<char> >:__str <- $x20
	;DEBUG_VALUE: __put_character_sequence<char, std::__1::char_traits<char> >:__len <- $x21
Ltmp20:                                 ; EH_LABEL
	.loc	41 0 3                          ; /opt/homebrew/Cellar/llvm/22.1.3/bin/../include/c++/v1/__ostream/put_character_sequence.h:0:3
	b	LBB5_15
Ltmp99:
LBB5_13:
	;DEBUG_VALUE: widen:this <- $x25
	;DEBUG_VALUE: widen:__c <- 32
	;DEBUG_VALUE: __put_character_sequence<char, std::__1::char_traits<char> >:__os <- $x19
	;DEBUG_VALUE: __put_character_sequence<char, std::__1::char_traits<char> >:__str <- $x20
	;DEBUG_VALUE: __put_character_sequence<char, std::__1::char_traits<char> >:__len <- $x21
Ltmp14:                                 ; EH_LABEL
	mov	x20, x0
Ltmp100:
	;DEBUG_VALUE: __put_character_sequence<char, std::__1::char_traits<char> >:__str <- [DW_OP_LLVM_entry_value 1] $x1
	.loc	24 696 3 is_stmt 1              ; /opt/homebrew/Cellar/llvm/22.1.3/bin/../include/c++/v1/ios:696:3 @[ /opt/homebrew/Cellar/llvm/22.1.3/bin/../include/c++/v1/ios:702:15 @[ /opt/homebrew/Cellar/llvm/22.1.3/bin/../include/c++/v1/__ostream/put_character_sequence.h:43:20 ] ]
	add	x0, sp, #24
	bl	__ZNSt3__16localeD1Ev
Ltmp101:
	.loc	24 0 3 is_stmt 0                ; /opt/homebrew/Cellar/llvm/22.1.3/bin/../include/c++/v1/ios:0:3
	b	LBB5_16
Ltmp102:
LBB5_14:
	;DEBUG_VALUE: __put_character_sequence<char, std::__1::char_traits<char> >:__os <- $x19
	;DEBUG_VALUE: __put_character_sequence<char, std::__1::char_traits<char> >:__str <- $x20
	;DEBUG_VALUE: __put_character_sequence<char, std::__1::char_traits<char> >:__len <- $x21
Ltmp17:                                 ; EH_LABEL
LBB5_15:                                ; %.body
	;DEBUG_VALUE: __put_character_sequence<char, std::__1::char_traits<char> >:__os <- $x19
	;DEBUG_VALUE: __put_character_sequence<char, std::__1::char_traits<char> >:__str <- $x20
	;DEBUG_VALUE: __put_character_sequence<char, std::__1::char_traits<char> >:__len <- $x21
	mov	x20, x0
Ltmp103:
	;DEBUG_VALUE: __put_character_sequence<char, std::__1::char_traits<char> >:__str <- [DW_OP_LLVM_entry_value 1] $x1
LBB5_16:                                ; %.body
	;DEBUG_VALUE: __put_character_sequence<char, std::__1::char_traits<char> >:__str <- [DW_OP_LLVM_entry_value 1] $x1
	;DEBUG_VALUE: __put_character_sequence<char, std::__1::char_traits<char> >:__os <- $x19
	;DEBUG_VALUE: __put_character_sequence<char, std::__1::char_traits<char> >:__len <- $x21
	.loc	41 48 3 is_stmt 1               ; /opt/homebrew/Cellar/llvm/22.1.3/bin/../include/c++/v1/__ostream/put_character_sequence.h:48:3
	add	x0, sp, #8
	bl	__ZNSt3__113basic_ostreamIcNS_11char_traitsIcEEE6sentryD1Ev
Ltmp104:
	.loc	41 0 3 is_stmt 0                ; /opt/homebrew/Cellar/llvm/22.1.3/bin/../include/c++/v1/__ostream/put_character_sequence.h:0:3
	b	LBB5_18
Ltmp105:
LBB5_17:
	;DEBUG_VALUE: __put_character_sequence<char, std::__1::char_traits<char> >:__os <- $x19
	;DEBUG_VALUE: __put_character_sequence<char, std::__1::char_traits<char> >:__str <- $x20
	;DEBUG_VALUE: __put_character_sequence<char, std::__1::char_traits<char> >:__len <- $x21
Ltmp7:                                  ; EH_LABEL
	mov	x20, x0
Ltmp106:
	;DEBUG_VALUE: __put_character_sequence<char, std::__1::char_traits<char> >:__str <- [DW_OP_LLVM_entry_value 1] $x1
LBB5_18:
	;DEBUG_VALUE: __put_character_sequence<char, std::__1::char_traits<char> >:__str <- [DW_OP_LLVM_entry_value 1] $x1
	;DEBUG_VALUE: __put_character_sequence<char, std::__1::char_traits<char> >:__os <- $x19
	;DEBUG_VALUE: __put_character_sequence<char, std::__1::char_traits<char> >:__len <- $x21
	.loc	41 48 3 is_stmt 1               ; /opt/homebrew/Cellar/llvm/22.1.3/bin/../include/c++/v1/__ostream/put_character_sequence.h:48:3
	mov	x0, x20
	bl	___cxa_begin_catch
Ltmp107:
	.loc	41 49 5                         ; /opt/homebrew/Cellar/llvm/22.1.3/bin/../include/c++/v1/__ostream/put_character_sequence.h:49:5
	ldr	x8, [x19]
	ldur	x8, [x8, #-24]
Ltmp21:                                 ; EH_LABEL
	add	x0, x19, x8
	.loc	41 49 10 is_stmt 0              ; /opt/homebrew/Cellar/llvm/22.1.3/bin/../include/c++/v1/__ostream/put_character_sequence.h:49:10
	bl	__ZNSt3__18ios_base33__set_badbit_and_consider_rethrowEv
Ltmp108:
Ltmp22:                                 ; EH_LABEL
; %bb.19:
	;DEBUG_VALUE: __put_character_sequence<char, std::__1::char_traits<char> >:__str <- [DW_OP_LLVM_entry_value 1] $x1
	;DEBUG_VALUE: __put_character_sequence<char, std::__1::char_traits<char> >:__os <- $x19
	;DEBUG_VALUE: __put_character_sequence<char, std::__1::char_traits<char> >:__len <- $x21
	.loc	41 50 3 is_stmt 1               ; /opt/homebrew/Cellar/llvm/22.1.3/bin/../include/c++/v1/__ostream/put_character_sequence.h:50:3
	bl	___cxa_end_catch
Ltmp109:
	.loc	41 0 3 is_stmt 0                ; /opt/homebrew/Cellar/llvm/22.1.3/bin/../include/c++/v1/__ostream/put_character_sequence.h:0:3
	b	LBB5_11
Ltmp110:
LBB5_20:
	;DEBUG_VALUE: __put_character_sequence<char, std::__1::char_traits<char> >:__str <- [DW_OP_LLVM_entry_value 1] $x1
	;DEBUG_VALUE: __put_character_sequence<char, std::__1::char_traits<char> >:__os <- $x19
	;DEBUG_VALUE: __put_character_sequence<char, std::__1::char_traits<char> >:__len <- $x21
Ltmp23:                                 ; EH_LABEL
	mov	x19, x0
Ltmp111:
	;DEBUG_VALUE: __put_character_sequence<char, std::__1::char_traits<char> >:__os <- [DW_OP_LLVM_entry_value 1] $x0
Ltmp24:                                 ; EH_LABEL
	.loc	41 50 3 is_stmt 1               ; /opt/homebrew/Cellar/llvm/22.1.3/bin/../include/c++/v1/__ostream/put_character_sequence.h:50:3
	bl	___cxa_end_catch
Ltmp112:
Ltmp25:                                 ; EH_LABEL
; %bb.21:
	;DEBUG_VALUE: __put_character_sequence<char, std::__1::char_traits<char> >:__os <- [DW_OP_LLVM_entry_value 1] $x0
	;DEBUG_VALUE: __put_character_sequence<char, std::__1::char_traits<char> >:__str <- [DW_OP_LLVM_entry_value 1] $x1
	;DEBUG_VALUE: __put_character_sequence<char, std::__1::char_traits<char> >:__len <- $x21
	.loc	41 0 3 is_stmt 0                ; /opt/homebrew/Cellar/llvm/22.1.3/bin/../include/c++/v1/__ostream/put_character_sequence.h:0:3
	mov	x0, x19
	bl	__Unwind_Resume
Ltmp113:
LBB5_22:
	;DEBUG_VALUE: __put_character_sequence<char, std::__1::char_traits<char> >:__os <- [DW_OP_LLVM_entry_value 1] $x0
	;DEBUG_VALUE: __put_character_sequence<char, std::__1::char_traits<char> >:__str <- [DW_OP_LLVM_entry_value 1] $x1
	;DEBUG_VALUE: __put_character_sequence<char, std::__1::char_traits<char> >:__len <- $x21
Ltmp26:                                 ; EH_LABEL
	.loc	41 50 3 is_stmt 1               ; /opt/homebrew/Cellar/llvm/22.1.3/bin/../include/c++/v1/__ostream/put_character_sequence.h:50:3
	bl	___clang_call_terminate
Ltmp114:
	.loh AdrpLdrGot	Lloh19, Lloh20
Lfunc_end5:
	.cfi_endproc
	.section	__TEXT,__gcc_except_tab
	.p2align	2, 0x0
GCC_except_table5:
Lexception1:
	.byte	255                             ; @LPStart Encoding = omit
	.byte	155                             ; @TType Encoding = indirect pcrel sdata4
	.uleb128 Lttbase0-Lttbaseref0
Lttbaseref0:
	.byte	1                               ; Call site Encoding = uleb128
	.uleb128 Lcst_end1-Lcst_begin1
Lcst_begin1:
	.uleb128 Ltmp5-Lfunc_begin5             ; >> Call Site 1 <<
	.uleb128 Ltmp6-Ltmp5                    ;   Call between Ltmp5 and Ltmp6
	.uleb128 Ltmp7-Lfunc_begin5             ;     jumps to Ltmp7
	.byte	1                               ;   On action: 1
	.uleb128 Ltmp8-Lfunc_begin5             ; >> Call Site 2 <<
	.uleb128 Ltmp9-Ltmp8                    ;   Call between Ltmp8 and Ltmp9
	.uleb128 Ltmp17-Lfunc_begin5            ;     jumps to Ltmp17
	.byte	1                               ;   On action: 1
	.uleb128 Ltmp10-Lfunc_begin5            ; >> Call Site 3 <<
	.uleb128 Ltmp13-Ltmp10                  ;   Call between Ltmp10 and Ltmp13
	.uleb128 Ltmp14-Lfunc_begin5            ;     jumps to Ltmp14
	.byte	1                               ;   On action: 1
	.uleb128 Ltmp15-Lfunc_begin5            ; >> Call Site 4 <<
	.uleb128 Ltmp16-Ltmp15                  ;   Call between Ltmp15 and Ltmp16
	.uleb128 Ltmp17-Lfunc_begin5            ;     jumps to Ltmp17
	.byte	1                               ;   On action: 1
	.uleb128 Ltmp18-Lfunc_begin5            ; >> Call Site 5 <<
	.uleb128 Ltmp19-Ltmp18                  ;   Call between Ltmp18 and Ltmp19
	.uleb128 Ltmp20-Lfunc_begin5            ;     jumps to Ltmp20
	.byte	1                               ;   On action: 1
	.uleb128 Ltmp19-Lfunc_begin5            ; >> Call Site 6 <<
	.uleb128 Ltmp21-Ltmp19                  ;   Call between Ltmp19 and Ltmp21
	.byte	0                               ;     has no landing pad
	.byte	0                               ;   On action: cleanup
	.uleb128 Ltmp21-Lfunc_begin5            ; >> Call Site 7 <<
	.uleb128 Ltmp22-Ltmp21                  ;   Call between Ltmp21 and Ltmp22
	.uleb128 Ltmp23-Lfunc_begin5            ;     jumps to Ltmp23
	.byte	0                               ;   On action: cleanup
	.uleb128 Ltmp22-Lfunc_begin5            ; >> Call Site 8 <<
	.uleb128 Ltmp24-Ltmp22                  ;   Call between Ltmp22 and Ltmp24
	.byte	0                               ;     has no landing pad
	.byte	0                               ;   On action: cleanup
	.uleb128 Ltmp24-Lfunc_begin5            ; >> Call Site 9 <<
	.uleb128 Ltmp25-Ltmp24                  ;   Call between Ltmp24 and Ltmp25
	.uleb128 Ltmp26-Lfunc_begin5            ;     jumps to Ltmp26
	.byte	1                               ;   On action: 1
	.uleb128 Ltmp25-Lfunc_begin5            ; >> Call Site 10 <<
	.uleb128 Lfunc_end5-Ltmp25              ;   Call between Ltmp25 and Lfunc_end5
	.byte	0                               ;     has no landing pad
	.byte	0                               ;   On action: cleanup
Lcst_end1:
	.byte	1                               ; >> Action Record 1 <<
                                        ;   Catch TypeInfo 1
	.byte	0                               ;   No further actions
	.p2align	2, 0x0
                                        ; >> Catch TypeInfos <<
	.long	0                               ; TypeInfo 1
Lttbase0:
	.p2align	2, 0x0
                                        ; -- End function
	.section	__TEXT,__text,regular,pure_instructions
	.private_extern	__ZNSt3__116__pad_and_outputB9nqe220103IcNS_11char_traitsIcEEEENS_19ostreambuf_iteratorIT_T0_EES6_PKS4_S8_S8_RNS_8ios_baseES4_ ; -- Begin function _ZNSt3__116__pad_and_outputB9nqe220103IcNS_11char_traitsIcEEEENS_19ostreambuf_iteratorIT_T0_EES6_PKS4_S8_S8_RNS_8ios_baseES4_
	.globl	__ZNSt3__116__pad_and_outputB9nqe220103IcNS_11char_traitsIcEEEENS_19ostreambuf_iteratorIT_T0_EES6_PKS4_S8_S8_RNS_8ios_baseES4_
	.weak_def_can_be_hidden	__ZNSt3__116__pad_and_outputB9nqe220103IcNS_11char_traitsIcEEEENS_19ostreambuf_iteratorIT_T0_EES6_PKS4_S8_S8_RNS_8ios_baseES4_
	.p2align	2
__ZNSt3__116__pad_and_outputB9nqe220103IcNS_11char_traitsIcEEEENS_19ostreambuf_iteratorIT_T0_EES6_PKS4_S8_S8_RNS_8ios_baseES4_: ; @_ZNSt3__116__pad_and_outputB9nqe220103IcNS_11char_traitsIcEEEENS_19ostreambuf_iteratorIT_T0_EES6_PKS4_S8_S8_RNS_8ios_baseES4_
Lfunc_begin6:
	.file	46 "/opt/homebrew/Cellar/llvm/22.1.3/bin/../include/c++/v1/__locale_dir" "pad_and_output.h"
	.loc	46 49 0                         ; /opt/homebrew/Cellar/llvm/22.1.3/bin/../include/c++/v1/__locale_dir/pad_and_output.h:49:0
	.cfi_startproc
	.cfi_personality 155, ___gxx_personality_v0
	.cfi_lsda 16, Lexception2
; %bb.0:
	;DEBUG_VALUE: __pad_and_output<char, std::__1::char_traits<char> >:__s <- $x0
	;DEBUG_VALUE: __pad_and_output<char, std::__1::char_traits<char> >:__ob <- $x1
	;DEBUG_VALUE: __pad_and_output<char, std::__1::char_traits<char> >:__op <- $x2
	;DEBUG_VALUE: __pad_and_output<char, std::__1::char_traits<char> >:__oe <- $x3
	;DEBUG_VALUE: __pad_and_output<char, std::__1::char_traits<char> >:__iob <- $x4
	;DEBUG_VALUE: __pad_and_output<char, std::__1::char_traits<char> >:__fl <- $w5
	;DEBUG_VALUE: __pad_and_output<char, std::__1::char_traits<char> >:__fl <- $w5
	;DEBUG_VALUE: __pad_and_output<char, std::__1::char_traits<char> >:__iob <- $x4
	;DEBUG_VALUE: __pad_and_output<char, std::__1::char_traits<char> >:__oe <- $x3
	;DEBUG_VALUE: __pad_and_output<char, std::__1::char_traits<char> >:__op <- $x2
	sub	sp, sp, #128
	stp	x28, x27, [sp, #32]             ; 16-byte Folded Spill
	stp	x26, x25, [sp, #48]             ; 16-byte Folded Spill
	stp	x24, x23, [sp, #64]             ; 16-byte Folded Spill
	stp	x22, x21, [sp, #80]             ; 16-byte Folded Spill
	stp	x20, x19, [sp, #96]             ; 16-byte Folded Spill
	stp	x29, x30, [sp, #112]            ; 16-byte Folded Spill
	add	x29, sp, #112
	.cfi_def_cfa w29, 16
	.cfi_offset w30, -8
	.cfi_offset w29, -16
	.cfi_offset w19, -24
	.cfi_offset w20, -32
	.cfi_offset w21, -40
	.cfi_offset w22, -48
	.cfi_offset w23, -56
	.cfi_offset w24, -64
	.cfi_offset w25, -72
	.cfi_offset w26, -80
	.cfi_offset w27, -88
	.cfi_offset w28, -96
	mov	x19, x0
Ltmp115:
	;DEBUG_VALUE: __pad_and_output<char, std::__1::char_traits<char> >:__s <- $x19
	.loc	46 50 19 prologue_end           ; /opt/homebrew/Cellar/llvm/22.1.3/bin/../include/c++/v1/__locale_dir/pad_and_output.h:50:19
	cbz	x0, LBB6_16
Ltmp116:
; %bb.1:
	;DEBUG_VALUE: __pad_and_output<char, std::__1::char_traits<char> >:__s <- $x19
	;DEBUG_VALUE: __pad_and_output<char, std::__1::char_traits<char> >:__fl <- $w5
	;DEBUG_VALUE: __pad_and_output<char, std::__1::char_traits<char> >:__iob <- $x4
	;DEBUG_VALUE: __pad_and_output<char, std::__1::char_traits<char> >:__oe <- $x3
	;DEBUG_VALUE: __pad_and_output<char, std::__1::char_traits<char> >:__op <- $x2
	;DEBUG_VALUE: __pad_and_output<char, std::__1::char_traits<char> >:__ob <- $x1
	.loc	46 0 19 is_stmt 0               ; /opt/homebrew/Cellar/llvm/22.1.3/bin/../include/c++/v1/__locale_dir/pad_and_output.h:0:19
	mov	x24, x5
Ltmp117:
	;DEBUG_VALUE: __pad_and_output<char, std::__1::char_traits<char> >:__fl <- $w24
	mov	x20, x4
Ltmp118:
	;DEBUG_VALUE: __pad_and_output<char, std::__1::char_traits<char> >:__iob <- $x20
	mov	x22, x3
Ltmp119:
	;DEBUG_VALUE: __pad_and_output<char, std::__1::char_traits<char> >:__oe <- $x22
	mov	x21, x2
Ltmp120:
	;DEBUG_VALUE: __pad_and_output<char, std::__1::char_traits<char> >:__op <- $x21
	;DEBUG_VALUE: __pad_and_output<char, std::__1::char_traits<char> >:__fl <- $w24
	.loc	24 497 193 is_stmt 1            ; /opt/homebrew/Cellar/llvm/22.1.3/bin/../include/c++/v1/ios:497:193 @[ /opt/homebrew/Cellar/llvm/22.1.3/bin/../include/c++/v1/__locale_dir/pad_and_output.h:53:27 ]
	ldr	x26, [x4, #24]
Ltmp121:
	;DEBUG_VALUE: __pad_and_output<char, std::__1::char_traits<char> >:__ns <- $x26
	.loc	46 52 26                        ; /opt/homebrew/Cellar/llvm/22.1.3/bin/../include/c++/v1/__locale_dir/pad_and_output.h:52:26
	sub	x27, x3, x1
Ltmp122:
	;DEBUG_VALUE: __pad_and_output<char, std::__1::char_traits<char> >:__sz <- $x27
	;DEBUG_VALUE: width:this <- $x20
	.loc	46 54 12                        ; /opt/homebrew/Cellar/llvm/22.1.3/bin/../include/c++/v1/__locale_dir/pad_and_output.h:54:12
	subs	x8, x26, x27
	csel	x23, x8, xzr, gt
Ltmp123:
	;DEBUG_VALUE: __pad_and_output<char, std::__1::char_traits<char> >:__ns <- $x23
	.loc	46 58 26                        ; /opt/homebrew/Cellar/llvm/22.1.3/bin/../include/c++/v1/__locale_dir/pad_and_output.h:58:26
	sub	x25, x2, x1
Ltmp124:
	;DEBUG_VALUE: __pad_and_output<char, std::__1::char_traits<char> >:__np <- $x25
	.loc	46 59 12                        ; /opt/homebrew/Cellar/llvm/22.1.3/bin/../include/c++/v1/__locale_dir/pad_and_output.h:59:12
	cmp	x25, #1
	b.lt	LBB6_3
Ltmp125:
; %bb.2:
	;DEBUG_VALUE: __pad_and_output<char, std::__1::char_traits<char> >:__np <- $x25
	;DEBUG_VALUE: __pad_and_output<char, std::__1::char_traits<char> >:__ns <- $x23
	;DEBUG_VALUE: __pad_and_output<char, std::__1::char_traits<char> >:__sz <- $x27
	;DEBUG_VALUE: __pad_and_output<char, std::__1::char_traits<char> >:__op <- $x21
	;DEBUG_VALUE: __pad_and_output<char, std::__1::char_traits<char> >:__oe <- $x22
	;DEBUG_VALUE: __pad_and_output<char, std::__1::char_traits<char> >:__iob <- $x20
	;DEBUG_VALUE: __pad_and_output<char, std::__1::char_traits<char> >:__fl <- $w24
	;DEBUG_VALUE: __pad_and_output<char, std::__1::char_traits<char> >:__s <- $x19
	;DEBUG_VALUE: __pad_and_output<char, std::__1::char_traits<char> >:__ob <- $x1
	;DEBUG_VALUE: sputn:this <- $x19
	;DEBUG_VALUE: sputn:__s <- $x1
	;DEBUG_VALUE: sputn:__n <- $x25
	.loc	33 255 12                       ; /opt/homebrew/Cellar/llvm/22.1.3/bin/../include/c++/v1/streambuf:255:12 @[ /opt/homebrew/Cellar/llvm/22.1.3/bin/../include/c++/v1/__locale_dir/pad_and_output.h:60:22 ]
	ldr	x8, [x19]
	ldr	x8, [x8, #96]
	mov	x0, x19
	mov	x2, x25
	blr	x8
Ltmp126:
	;DEBUG_VALUE: __pad_and_output<char, std::__1::char_traits<char> >:__ob <- [DW_OP_LLVM_entry_value 1] $x1
	.loc	46 60 40                        ; /opt/homebrew/Cellar/llvm/22.1.3/bin/../include/c++/v1/__locale_dir/pad_and_output.h:60:40
	cmp	x0, x25
	b.ne	LBB6_15
Ltmp127:
LBB6_3:
	;DEBUG_VALUE: __pad_and_output<char, std::__1::char_traits<char> >:__np <- $x25
	;DEBUG_VALUE: __pad_and_output<char, std::__1::char_traits<char> >:__ns <- $x23
	;DEBUG_VALUE: __pad_and_output<char, std::__1::char_traits<char> >:__sz <- $x27
	;DEBUG_VALUE: __pad_and_output<char, std::__1::char_traits<char> >:__op <- $x21
	;DEBUG_VALUE: __pad_and_output<char, std::__1::char_traits<char> >:__oe <- $x22
	;DEBUG_VALUE: __pad_and_output<char, std::__1::char_traits<char> >:__iob <- $x20
	;DEBUG_VALUE: __pad_and_output<char, std::__1::char_traits<char> >:__fl <- $w24
	;DEBUG_VALUE: __pad_and_output<char, std::__1::char_traits<char> >:__s <- $x19
	;DEBUG_VALUE: __pad_and_output<char, std::__1::char_traits<char> >:__fl <- $w24
	.loc	46 65 12                        ; /opt/homebrew/Cellar/llvm/22.1.3/bin/../include/c++/v1/__locale_dir/pad_and_output.h:65:12
	cmp	x26, x27
	b.le	LBB6_12
Ltmp128:
; %bb.4:
	;DEBUG_VALUE: __pad_and_output<char, std::__1::char_traits<char> >:__np <- $x25
	;DEBUG_VALUE: __pad_and_output<char, std::__1::char_traits<char> >:__ns <- $x23
	;DEBUG_VALUE: __pad_and_output<char, std::__1::char_traits<char> >:__sz <- $x27
	;DEBUG_VALUE: __pad_and_output<char, std::__1::char_traits<char> >:__op <- $x21
	;DEBUG_VALUE: __pad_and_output<char, std::__1::char_traits<char> >:__oe <- $x22
	;DEBUG_VALUE: __pad_and_output<char, std::__1::char_traits<char> >:__iob <- $x20
	;DEBUG_VALUE: __pad_and_output<char, std::__1::char_traits<char> >:__fl <- $w24
	;DEBUG_VALUE: __pad_and_output<char, std::__1::char_traits<char> >:__s <- $x19
	;DEBUG_VALUE: __pad_and_output<char, std::__1::char_traits<char> >:__fl <- $w24
	.loc	46 0 12 is_stmt 0               ; /opt/homebrew/Cellar/llvm/22.1.3/bin/../include/c++/v1/__locale_dir/pad_and_output.h:0:12
	mov	x8, #-9                         ; =0xfffffffffffffff7
	movk	x8, #32767, lsl #48
Ltmp129:
	;DEBUG_VALUE: basic_string:this <- [DW_OP_plus_uconst 8, DW_OP_stack_value] $sp
	;DEBUG_VALUE: basic_string:__n <- $x23
	;DEBUG_VALUE: basic_string:__c <- $w24
	;DEBUG_VALUE: basic_string:this <- [DW_OP_plus_uconst 8, DW_OP_stack_value] $sp
	;DEBUG_VALUE: basic_string:__n <- $x23
	;DEBUG_VALUE: basic_string:__c <- $w24
	;DEBUG_VALUE: __init:this <- [DW_OP_plus_uconst 8, DW_OP_stack_value] $sp
	;DEBUG_VALUE: __init:__n <- $x23
	;DEBUG_VALUE: __init:__c <- $w24
	;DEBUG_VALUE: __long:this <- undef
	;DEBUG_VALUE: __long:this <- undef
	;DEBUG_VALUE: __init_internal_buffer:this <- [DW_OP_plus_uconst 8, DW_OP_stack_value] $sp
	;DEBUG_VALUE: __init_internal_buffer:__size <- $x23
	.loc	2 2302 16 is_stmt 1             ; /opt/homebrew/Cellar/llvm/22.1.3/bin/../include/c++/v1/string:2302:16 @[ /opt/homebrew/Cellar/llvm/22.1.3/bin/../include/c++/v1/string:2677:17 @[ /opt/homebrew/Cellar/llvm/22.1.3/bin/../include/c++/v1/string:1093:196 @[ /opt/homebrew/Cellar/llvm/22.1.3/bin/../include/c++/v1/string:1093:194 @[ /opt/homebrew/Cellar/llvm/22.1.3/bin/../include/c++/v1/__locale_dir/pad_and_output.h:66:35 ] ] ] ]
	cmp	x23, x8
	b.hs	LBB6_17
Ltmp130:
; %bb.5:
	;DEBUG_VALUE: __init_internal_buffer:__size <- $x23
	;DEBUG_VALUE: __init_internal_buffer:this <- [DW_OP_plus_uconst 8, DW_OP_stack_value] $sp
	;DEBUG_VALUE: __init:__c <- $w24
	;DEBUG_VALUE: __init:__n <- $x23
	;DEBUG_VALUE: __init:this <- [DW_OP_plus_uconst 8, DW_OP_stack_value] $sp
	;DEBUG_VALUE: basic_string:__c <- $w24
	;DEBUG_VALUE: basic_string:__n <- $x23
	;DEBUG_VALUE: basic_string:this <- [DW_OP_plus_uconst 8, DW_OP_stack_value] $sp
	;DEBUG_VALUE: basic_string:__c <- $w24
	;DEBUG_VALUE: basic_string:__n <- $x23
	;DEBUG_VALUE: basic_string:this <- [DW_OP_plus_uconst 8, DW_OP_stack_value] $sp
	;DEBUG_VALUE: __pad_and_output<char, std::__1::char_traits<char> >:__np <- $x25
	;DEBUG_VALUE: __pad_and_output<char, std::__1::char_traits<char> >:__ns <- $x23
	;DEBUG_VALUE: __pad_and_output<char, std::__1::char_traits<char> >:__sz <- $x27
	;DEBUG_VALUE: __pad_and_output<char, std::__1::char_traits<char> >:__op <- $x21
	;DEBUG_VALUE: __pad_and_output<char, std::__1::char_traits<char> >:__oe <- $x22
	;DEBUG_VALUE: __pad_and_output<char, std::__1::char_traits<char> >:__iob <- $x20
	;DEBUG_VALUE: __pad_and_output<char, std::__1::char_traits<char> >:__fl <- $w24
	;DEBUG_VALUE: __pad_and_output<char, std::__1::char_traits<char> >:__s <- $x19
	;DEBUG_VALUE: __pad_and_output<char, std::__1::char_traits<char> >:__fl <- $w24
	;DEBUG_VALUE: basic_string:__n <- $x23
	;DEBUG_VALUE: basic_string:__c <- $w24
	;DEBUG_VALUE: basic_string:__n <- $x23
	;DEBUG_VALUE: basic_string:__c <- $w24
	;DEBUG_VALUE: __init:__n <- $x23
	;DEBUG_VALUE: __init:__c <- $w24
	;DEBUG_VALUE: __init_internal_buffer:__size <- $x23
	;DEBUG_VALUE: __fits_in_sso:__sz <- $x23
	.loc	2 2305 9                        ; /opt/homebrew/Cellar/llvm/22.1.3/bin/../include/c++/v1/string:2305:9 @[ /opt/homebrew/Cellar/llvm/22.1.3/bin/../include/c++/v1/string:2677:17 @[ /opt/homebrew/Cellar/llvm/22.1.3/bin/../include/c++/v1/string:1093:196 @[ /opt/homebrew/Cellar/llvm/22.1.3/bin/../include/c++/v1/string:1093:194 @[ /opt/homebrew/Cellar/llvm/22.1.3/bin/../include/c++/v1/__locale_dir/pad_and_output.h:66:35 ] ] ] ]
	cmp	x23, #22
	b.hi	LBB6_7
Ltmp131:
; %bb.6:
	;DEBUG_VALUE: __init_internal_buffer:__size <- $x23
	;DEBUG_VALUE: __init_internal_buffer:this <- [DW_OP_plus_uconst 8, DW_OP_stack_value] $sp
	;DEBUG_VALUE: __init:__c <- $w24
	;DEBUG_VALUE: __init:__n <- $x23
	;DEBUG_VALUE: __init:this <- [DW_OP_plus_uconst 8, DW_OP_stack_value] $sp
	;DEBUG_VALUE: basic_string:__c <- $w24
	;DEBUG_VALUE: basic_string:__n <- $x23
	;DEBUG_VALUE: basic_string:this <- [DW_OP_plus_uconst 8, DW_OP_stack_value] $sp
	;DEBUG_VALUE: basic_string:__c <- $w24
	;DEBUG_VALUE: basic_string:__n <- $x23
	;DEBUG_VALUE: basic_string:this <- [DW_OP_plus_uconst 8, DW_OP_stack_value] $sp
	;DEBUG_VALUE: __pad_and_output<char, std::__1::char_traits<char> >:__np <- $x25
	;DEBUG_VALUE: __pad_and_output<char, std::__1::char_traits<char> >:__ns <- $x23
	;DEBUG_VALUE: __pad_and_output<char, std::__1::char_traits<char> >:__sz <- $x27
	;DEBUG_VALUE: __pad_and_output<char, std::__1::char_traits<char> >:__op <- $x21
	;DEBUG_VALUE: __pad_and_output<char, std::__1::char_traits<char> >:__oe <- $x22
	;DEBUG_VALUE: __pad_and_output<char, std::__1::char_traits<char> >:__iob <- $x20
	;DEBUG_VALUE: __pad_and_output<char, std::__1::char_traits<char> >:__fl <- $w24
	;DEBUG_VALUE: __pad_and_output<char, std::__1::char_traits<char> >:__s <- $x19
	;DEBUG_VALUE: __set_short_size:this <- [DW_OP_plus_uconst 8, DW_OP_stack_value] $sp
	;DEBUG_VALUE: __set_short_size:__s <- $x23
	.loc	2 2210 27                       ; /opt/homebrew/Cellar/llvm/22.1.3/bin/../include/c++/v1/string:2210:27 @[ /opt/homebrew/Cellar/llvm/22.1.3/bin/../include/c++/v1/string:2306:7 @[ /opt/homebrew/Cellar/llvm/22.1.3/bin/../include/c++/v1/string:2677:17 @[ /opt/homebrew/Cellar/llvm/22.1.3/bin/../include/c++/v1/string:1093:196 @[ /opt/homebrew/Cellar/llvm/22.1.3/bin/../include/c++/v1/string:1093:194 @[ /opt/homebrew/Cellar/llvm/22.1.3/bin/../include/c++/v1/__locale_dir/pad_and_output.h:66:35 ] ] ] ] ]
	strb	w23, [sp, #31]
	add	x25, sp, #8
Ltmp132:
	.loc	2 2308 7                        ; /opt/homebrew/Cellar/llvm/22.1.3/bin/../include/c++/v1/string:2308:7 @[ /opt/homebrew/Cellar/llvm/22.1.3/bin/../include/c++/v1/string:2677:17 @[ /opt/homebrew/Cellar/llvm/22.1.3/bin/../include/c++/v1/string:1093:196 @[ /opt/homebrew/Cellar/llvm/22.1.3/bin/../include/c++/v1/string:1093:194 @[ /opt/homebrew/Cellar/llvm/22.1.3/bin/../include/c++/v1/__locale_dir/pad_and_output.h:66:35 ] ] ] ]
	b	LBB6_8
Ltmp133:
LBB6_7:
	;DEBUG_VALUE: __init_internal_buffer:__size <- $x23
	;DEBUG_VALUE: __init_internal_buffer:this <- [DW_OP_plus_uconst 8, DW_OP_stack_value] $sp
	;DEBUG_VALUE: __init:__c <- $w24
	;DEBUG_VALUE: __init:__n <- $x23
	;DEBUG_VALUE: __init:this <- [DW_OP_plus_uconst 8, DW_OP_stack_value] $sp
	;DEBUG_VALUE: basic_string:__c <- $w24
	;DEBUG_VALUE: basic_string:__n <- $x23
	;DEBUG_VALUE: basic_string:this <- [DW_OP_plus_uconst 8, DW_OP_stack_value] $sp
	;DEBUG_VALUE: basic_string:__c <- $w24
	;DEBUG_VALUE: basic_string:__n <- $x23
	;DEBUG_VALUE: basic_string:this <- [DW_OP_plus_uconst 8, DW_OP_stack_value] $sp
	;DEBUG_VALUE: __pad_and_output<char, std::__1::char_traits<char> >:__np <- $x25
	;DEBUG_VALUE: __pad_and_output<char, std::__1::char_traits<char> >:__ns <- $x23
	;DEBUG_VALUE: __pad_and_output<char, std::__1::char_traits<char> >:__sz <- $x27
	;DEBUG_VALUE: __pad_and_output<char, std::__1::char_traits<char> >:__op <- $x21
	;DEBUG_VALUE: __pad_and_output<char, std::__1::char_traits<char> >:__oe <- $x22
	;DEBUG_VALUE: __pad_and_output<char, std::__1::char_traits<char> >:__iob <- $x20
	;DEBUG_VALUE: __pad_and_output<char, std::__1::char_traits<char> >:__fl <- $w24
	;DEBUG_VALUE: __pad_and_output<char, std::__1::char_traits<char> >:__s <- $x19
	;DEBUG_VALUE: __allocate_long_buffer:__alloc <- [DW_OP_plus_uconst 8, DW_OP_stack_value] $sp
	;DEBUG_VALUE: __allocate_long_buffer:__capacity <- $x23
	;DEBUG_VALUE: __align_allocation_size:__size <- $x23
	;DEBUG_VALUE: __align_allocation_size:__boundary <- 8
	;DEBUG_VALUE: __align_it<8UL>:__s <- [DW_OP_plus_uconst 1, DW_OP_stack_value] $x23
	.loc	2 2367 30                       ; /opt/homebrew/Cellar/llvm/22.1.3/bin/../include/c++/v1/string:2367:30 @[ /opt/homebrew/Cellar/llvm/22.1.3/bin/../include/c++/v1/string:2379:25 @[ /opt/homebrew/Cellar/llvm/22.1.3/bin/../include/c++/v1/string:2278:55 @[ /opt/homebrew/Cellar/llvm/22.1.3/bin/../include/c++/v1/string:2310:20 @[ /opt/homebrew/Cellar/llvm/22.1.3/bin/../include/c++/v1/string:2677:17 @[ /opt/homebrew/Cellar/llvm/22.1.3/bin/../include/c++/v1/string:1093:196 @[ /opt/homebrew/Cellar/llvm/22.1.3/bin/../include/c++/v1/string:1093:194 @[ /opt/homebrew/Cellar/llvm/22.1.3/bin/../include/c++/v1/__locale_dir/pad_and_output.h:66:35 ] ] ] ] ] ] ]
	and	x8, x23, #0x7ffffffffffffff8
	add	x8, x8, #8
Ltmp134:
	;DEBUG_VALUE: __align_allocation_size:__guess <- $x8
	.loc	2 0 30 is_stmt 0                ; /opt/homebrew/Cellar/llvm/22.1.3/bin/../include/c++/v1/string:0:30
	mov	w9, #25                         ; =0x19
Ltmp135:
	.loc	2 2380 17 is_stmt 1             ; /opt/homebrew/Cellar/llvm/22.1.3/bin/../include/c++/v1/string:2380:17 @[ /opt/homebrew/Cellar/llvm/22.1.3/bin/../include/c++/v1/string:2278:55 @[ /opt/homebrew/Cellar/llvm/22.1.3/bin/../include/c++/v1/string:2310:20 @[ /opt/homebrew/Cellar/llvm/22.1.3/bin/../include/c++/v1/string:2677:17 @[ /opt/homebrew/Cellar/llvm/22.1.3/bin/../include/c++/v1/string:1093:196 @[ /opt/homebrew/Cellar/llvm/22.1.3/bin/../include/c++/v1/string:1093:194 @[ /opt/homebrew/Cellar/llvm/22.1.3/bin/../include/c++/v1/__locale_dir/pad_and_output.h:66:35 ] ] ] ] ] ]
	cmp	x8, #24
	csel	x26, x9, x8, eq
Ltmp136:
	;DEBUG_VALUE: __align_allocation_size:__guess <- $x26
	;DEBUG_VALUE: __allocate_at_least<std::__1::allocator<char>, std::__1::allocator_traits<std::__1::allocator<char> > >:__n <- $x26
	;DEBUG_VALUE: allocate:__n <- $x26
	;DEBUG_VALUE: __libcpp_allocate<char>:__n <- $x26
	;DEBUG_VALUE: __libcpp_allocate<char>:__size <- $x26
	;DEBUG_VALUE: __allocate_at_least<std::__1::allocator<char>, std::__1::allocator_traits<std::__1::allocator<char> > >:__alloc <- [DW_OP_plus_uconst 8, DW_OP_stack_value] $sp
	;DEBUG_VALUE: allocate:this <- [DW_OP_plus_uconst 8, DW_OP_stack_value] $sp
	;DEBUG_VALUE: __libcpp_allocate<char>:__align <- 1
	.file	47 "/opt/homebrew/Cellar/llvm/22.1.3/bin/../include/c++/v1/__new" "allocate.h"
	.loc	47 42 28                        ; /opt/homebrew/Cellar/llvm/22.1.3/bin/../include/c++/v1/__new/allocate.h:42:28 @[ /opt/homebrew/Cellar/llvm/22.1.3/bin/../include/c++/v1/__memory/allocator.h:92:14 @[ /opt/homebrew/Cellar/llvm/22.1.3/bin/../include/c++/v1/__memory/allocate_at_least.h:46:94 @[ /opt/homebrew/Cellar/llvm/22.1.3/bin/../include/c++/v1/string:2278:21 @[ /opt/homebrew/Cellar/llvm/22.1.3/bin/../include/c++/v1/string:2310:20 @[ /opt/homebrew/Cellar/llvm/22.1.3/bin/../include/c++/v1/string:2677:17 @[ /opt/homebrew/Cellar/llvm/22.1.3/bin/../include/c++/v1/string:1093:196 @[ /opt/homebrew/Cellar/llvm/22.1.3/bin/../include/c++/v1/string:1093:194 @[ /opt/homebrew/Cellar/llvm/22.1.3/bin/../include/c++/v1/__locale_dir/pad_and_output.h:66:35 ] ] ] ] ] ] ] ]
	mov	x0, x26
	bl	__Znwm
Ltmp137:
	.loc	47 42 28                        ; /opt/homebrew/Cellar/llvm/22.1.3/bin/../include/c++/v1/__new/allocate.h:42:28 @[ /opt/homebrew/Cellar/llvm/22.1.3/bin/../include/c++/v1/__memory/allocator.h:92:14 @[ /opt/homebrew/Cellar/llvm/22.1.3/bin/../include/c++/v1/__memory/allocate_at_least.h:46:94 @[ /opt/homebrew/Cellar/llvm/22.1.3/bin/../include/c++/v1/string:2278:21 @[ /opt/homebrew/Cellar/llvm/22.1.3/bin/../include/c++/v1/string:2310:20 @[ /opt/homebrew/Cellar/llvm/22.1.3/bin/../include/c++/v1/string:2677:17 @[ /opt/homebrew/Cellar/llvm/22.1.3/bin/../include/c++/v1/string:1093:196 @[ /opt/homebrew/Cellar/llvm/22.1.3/bin/../include/c++/v1/string:1093:194 @[ /opt/homebrew/Cellar/llvm/22.1.3/bin/../include/c++/v1/__locale_dir/pad_and_output.h:66:35 ] ] ] ] ] ] ] ]
	mov	x25, x0
Ltmp138:
	;DEBUG_VALUE: __long:this <- undef
	;DEBUG_VALUE: __long:this <- undef
	;DEBUG_VALUE: __long:__alloc <- [DW_OP_LLVM_fragment 64 64] $x26
	;DEBUG_VALUE: __long:__alloc <- [DW_OP_LLVM_fragment 0 64] $x25
	;DEBUG_VALUE: __allocate_long_buffer:__buffer <- [DW_OP_LLVM_fragment 0 64] undef
	;DEBUG_VALUE: __allocate_long_buffer:__buffer <- [DW_OP_LLVM_fragment 64 64] undef
	;DEBUG_VALUE: __long:__alloc <- [DW_OP_LLVM_fragment 0 64] undef
	;DEBUG_VALUE: __long:__alloc <- [DW_OP_LLVM_fragment 64 64] undef
	;DEBUG_VALUE: __long:__size <- $x23
	;DEBUG_VALUE: __long:__size <- $x23
	.loc	2 826 91                        ; /opt/homebrew/Cellar/llvm/22.1.3/bin/../include/c++/v1/string:826:91 @[ /opt/homebrew/Cellar/llvm/22.1.3/bin/../include/c++/v1/string:826:108 @[ /opt/homebrew/Cellar/llvm/22.1.3/bin/../include/c++/v1/string:2285:12 @[ /opt/homebrew/Cellar/llvm/22.1.3/bin/../include/c++/v1/string:2310:20 @[ /opt/homebrew/Cellar/llvm/22.1.3/bin/../include/c++/v1/string:2677:17 @[ /opt/homebrew/Cellar/llvm/22.1.3/bin/../include/c++/v1/string:1093:196 @[ /opt/homebrew/Cellar/llvm/22.1.3/bin/../include/c++/v1/string:1093:194 @[ /opt/homebrew/Cellar/llvm/22.1.3/bin/../include/c++/v1/__locale_dir/pad_and_output.h:66:35 ] ] ] ] ] ] ]
	orr	x8, x26, #0x8000000000000000
Ltmp139:
	.loc	2 2310 18                       ; /opt/homebrew/Cellar/llvm/22.1.3/bin/../include/c++/v1/string:2310:18 @[ /opt/homebrew/Cellar/llvm/22.1.3/bin/../include/c++/v1/string:2677:17 @[ /opt/homebrew/Cellar/llvm/22.1.3/bin/../include/c++/v1/string:1093:196 @[ /opt/homebrew/Cellar/llvm/22.1.3/bin/../include/c++/v1/string:1093:194 @[ /opt/homebrew/Cellar/llvm/22.1.3/bin/../include/c++/v1/__locale_dir/pad_and_output.h:66:35 ] ] ] ]
	stp	x0, x23, [sp, #8]
	str	x8, [sp, #24]
Ltmp140:
LBB6_8:                                 ; %.lr.ph.i.i.preheader.i.i.i.i
	;DEBUG_VALUE: __init:__c <- $w24
	;DEBUG_VALUE: __init:__n <- $x23
	;DEBUG_VALUE: __init:this <- [DW_OP_plus_uconst 8, DW_OP_stack_value] $sp
	;DEBUG_VALUE: basic_string:__c <- $w24
	;DEBUG_VALUE: basic_string:__n <- $x23
	;DEBUG_VALUE: basic_string:this <- [DW_OP_plus_uconst 8, DW_OP_stack_value] $sp
	;DEBUG_VALUE: basic_string:__c <- $w24
	;DEBUG_VALUE: basic_string:__n <- $x23
	;DEBUG_VALUE: basic_string:this <- [DW_OP_plus_uconst 8, DW_OP_stack_value] $sp
	;DEBUG_VALUE: __pad_and_output<char, std::__1::char_traits<char> >:__ns <- $x23
	;DEBUG_VALUE: __pad_and_output<char, std::__1::char_traits<char> >:__sz <- $x27
	;DEBUG_VALUE: __pad_and_output<char, std::__1::char_traits<char> >:__op <- $x21
	;DEBUG_VALUE: __pad_and_output<char, std::__1::char_traits<char> >:__oe <- $x22
	;DEBUG_VALUE: __pad_and_output<char, std::__1::char_traits<char> >:__iob <- $x20
	;DEBUG_VALUE: __pad_and_output<char, std::__1::char_traits<char> >:__fl <- $w24
	;DEBUG_VALUE: __pad_and_output<char, std::__1::char_traits<char> >:__s <- $x19
	;DEBUG_VALUE: __init:__p <- $x25
	;DEBUG_VALUE: assign:__s <- $x25
	;DEBUG_VALUE: assign:__n <- $x23
	;DEBUG_VALUE: assign:__a <- $w24
	;DEBUG_VALUE: fill_n<char *, unsigned long, char>:__first <- $x25
	;DEBUG_VALUE: fill_n<char *, unsigned long, char>:__n <- $x23
	;DEBUG_VALUE: fill_n<char *, unsigned long, char>:__value <- undef
	;DEBUG_VALUE: __fill_n<char *, unsigned long, char, 0>:__first <- $x25
	;DEBUG_VALUE: __fill_n<char *, unsigned long, char, 0>:__n <- $x23
	;DEBUG_VALUE: __fill_n<char *, unsigned long, char, 0>:__value <- undef
	;DEBUG_VALUE: __fill_n<char *, unsigned long, char, 0>:__first <- undef
	;DEBUG_VALUE: __fill_n<char *, unsigned long, char, 0>:__n <- undef
	.file	48 "/opt/homebrew/Cellar/llvm/22.1.3/bin/../include/c++/v1/__algorithm" "fill_n.h"
	.loc	48 51 14                        ; /opt/homebrew/Cellar/llvm/22.1.3/bin/../include/c++/v1/__algorithm/fill_n.h:51:14 @[ /opt/homebrew/Cellar/llvm/22.1.3/bin/../include/c++/v1/__algorithm/fill_n.h:68:10 @[ /opt/homebrew/Cellar/llvm/22.1.3/bin/../include/c++/v1/__string/char_traits.h:155:5 @[ /opt/homebrew/Cellar/llvm/22.1.3/bin/../include/c++/v1/string:2678:3 @[ /opt/homebrew/Cellar/llvm/22.1.3/bin/../include/c++/v1/string:1093:196 @[ /opt/homebrew/Cellar/llvm/22.1.3/bin/../include/c++/v1/string:1093:194 @[ /opt/homebrew/Cellar/llvm/22.1.3/bin/../include/c++/v1/__locale_dir/pad_and_output.h:66:35 ] ] ] ] ] ]
	mov	x0, x25
	mov	x1, x24
	mov	x2, x23
	bl	_memset
Ltmp141:
	;DEBUG_VALUE: assign:__c1 <- [DW_OP_LLVM_arg 0, DW_OP_LLVM_arg 1, DW_OP_plus, DW_OP_stack_value] $x25, $x23
	;DEBUG_VALUE: assign:__c2 <- undef
	.loc	5 93 10                         ; /opt/homebrew/Cellar/llvm/22.1.3/bin/../include/c++/v1/__string/char_traits.h:93:10 @[ /opt/homebrew/Cellar/llvm/22.1.3/bin/../include/c++/v1/string:2679:3 @[ /opt/homebrew/Cellar/llvm/22.1.3/bin/../include/c++/v1/string:1093:196 @[ /opt/homebrew/Cellar/llvm/22.1.3/bin/../include/c++/v1/string:1093:194 @[ /opt/homebrew/Cellar/llvm/22.1.3/bin/../include/c++/v1/__locale_dir/pad_and_output.h:66:35 ] ] ] ]
	strb	wzr, [x25, x23]
Ltmp142:
	;DEBUG_VALUE: data:this <- [DW_OP_plus_uconst 8, DW_OP_stack_value] $sp
	;DEBUG_VALUE: __get_pointer:this <- [DW_OP_plus_uconst 8, DW_OP_stack_value] $sp
	;DEBUG_VALUE: __is_long:this <- [DW_OP_plus_uconst 8, DW_OP_stack_value] $sp
	.loc	2 2142 23 is_stmt 0             ; /opt/homebrew/Cellar/llvm/22.1.3/bin/../include/c++/v1/string:2142:23 @[ /opt/homebrew/Cellar/llvm/22.1.3/bin/../include/c++/v1/string:2261:12 @[ /opt/homebrew/Cellar/llvm/22.1.3/bin/../include/c++/v1/string:1806:30 @[ /opt/homebrew/Cellar/llvm/22.1.3/bin/../include/c++/v1/__locale_dir/pad_and_output.h:67:33 ] ] ]
	ldrsb	w8, [sp, #31]
Ltmp143:
	.loc	2 2261 12 is_stmt 1             ; /opt/homebrew/Cellar/llvm/22.1.3/bin/../include/c++/v1/string:2261:12 @[ /opt/homebrew/Cellar/llvm/22.1.3/bin/../include/c++/v1/string:1806:30 @[ /opt/homebrew/Cellar/llvm/22.1.3/bin/../include/c++/v1/__locale_dir/pad_and_output.h:67:33 ] ]
	ldr	x9, [sp, #8]
	cmp	w8, #0
	add	x8, sp, #8
	csel	x1, x9, x8, mi
Ltmp144:
	;DEBUG_VALUE: sputn:__s <- $x1
	;DEBUG_VALUE: sputn:this <- $x19
	;DEBUG_VALUE: sputn:__n <- $x23
	.loc	33 255 12                       ; /opt/homebrew/Cellar/llvm/22.1.3/bin/../include/c++/v1/streambuf:255:12 @[ /opt/homebrew/Cellar/llvm/22.1.3/bin/../include/c++/v1/__locale_dir/pad_and_output.h:67:22 ]
	ldr	x8, [x19]
	ldr	x8, [x8, #96]
Ltmp27:                                 ; EH_LABEL
	mov	x0, x19
	mov	x2, x23
	blr	x8
Ltmp145:
Ltmp28:                                 ; EH_LABEL
; %bb.9:                                ; %_ZNSt3__115basic_streambufIcNS_11char_traitsIcEEE5sputnB9nqe220103EPKcl.exit
	;DEBUG_VALUE: __pad_and_output<char, std::__1::char_traits<char> >:__ns <- $x23
	;DEBUG_VALUE: __pad_and_output<char, std::__1::char_traits<char> >:__sz <- $x27
	;DEBUG_VALUE: __pad_and_output<char, std::__1::char_traits<char> >:__op <- $x21
	;DEBUG_VALUE: __pad_and_output<char, std::__1::char_traits<char> >:__oe <- $x22
	;DEBUG_VALUE: __pad_and_output<char, std::__1::char_traits<char> >:__iob <- $x20
	;DEBUG_VALUE: __pad_and_output<char, std::__1::char_traits<char> >:__fl <- $w24
	;DEBUG_VALUE: __pad_and_output<char, std::__1::char_traits<char> >:__s <- $x19
	.loc	46 0 0 is_stmt 0                ; /opt/homebrew/Cellar/llvm/22.1.3/bin/../include/c++/v1/__locale_dir/pad_and_output.h:0
	cmp	x0, x23
	csel	x19, x19, xzr, eq
Ltmp146:
	;DEBUG_VALUE: __pad_and_output<char, std::__1::char_traits<char> >:__s <- $x19
	;DEBUG_VALUE: ~basic_string:this <- [DW_OP_plus_uconst 8, DW_OP_stack_value] $sp
	;DEBUG_VALUE: ~basic_string:this <- [DW_OP_plus_uconst 8, DW_OP_stack_value] $sp
	;DEBUG_VALUE: __reset_internal_buffer:this <- [DW_OP_plus_uconst 8, DW_OP_stack_value] $sp
	;DEBUG_VALUE: __reset_internal_buffer:__new_rep <- undef
	;DEBUG_VALUE: __is_long:this <- [DW_OP_plus_uconst 8, DW_OP_stack_value] $sp
	.loc	2 2142 23                       ; /opt/homebrew/Cellar/llvm/22.1.3/bin/../include/c++/v1/string:2142:23 @[ /opt/homebrew/Cellar/llvm/22.1.3/bin/../include/c++/v1/string:2291:9 @[ /opt/homebrew/Cellar/llvm/22.1.3/bin/../include/c++/v1/string:1210:38 @[ /opt/homebrew/Cellar/llvm/22.1.3/bin/../include/c++/v1/string:1210:36 @[ /opt/homebrew/Cellar/llvm/22.1.3/bin/../include/c++/v1/__locale_dir/pad_and_output.h:71:3 ] ] ] ]
	ldrsb	w8, [sp, #31]
Ltmp147:
	.loc	2 2291 9 is_stmt 1              ; /opt/homebrew/Cellar/llvm/22.1.3/bin/../include/c++/v1/string:2291:9 @[ /opt/homebrew/Cellar/llvm/22.1.3/bin/../include/c++/v1/string:1210:38 @[ /opt/homebrew/Cellar/llvm/22.1.3/bin/../include/c++/v1/string:1210:36 @[ /opt/homebrew/Cellar/llvm/22.1.3/bin/../include/c++/v1/__locale_dir/pad_and_output.h:71:3 ] ] ]
	tbnz	w8, #31, LBB6_11
Ltmp148:
; %bb.10:                               ; %_ZNSt3__112basic_stringIcNS_11char_traitsIcEENS_9allocatorIcEEED1Ev.exit
	;DEBUG_VALUE: __is_long:this <- [DW_OP_plus_uconst 8, DW_OP_stack_value] $sp
	;DEBUG_VALUE: __reset_internal_buffer:this <- [DW_OP_plus_uconst 8, DW_OP_stack_value] $sp
	;DEBUG_VALUE: ~basic_string:this <- [DW_OP_plus_uconst 8, DW_OP_stack_value] $sp
	;DEBUG_VALUE: ~basic_string:this <- [DW_OP_plus_uconst 8, DW_OP_stack_value] $sp
	;DEBUG_VALUE: __pad_and_output<char, std::__1::char_traits<char> >:__ns <- $x23
	;DEBUG_VALUE: __pad_and_output<char, std::__1::char_traits<char> >:__sz <- $x27
	;DEBUG_VALUE: __pad_and_output<char, std::__1::char_traits<char> >:__op <- $x21
	;DEBUG_VALUE: __pad_and_output<char, std::__1::char_traits<char> >:__oe <- $x22
	;DEBUG_VALUE: __pad_and_output<char, std::__1::char_traits<char> >:__iob <- $x20
	;DEBUG_VALUE: __pad_and_output<char, std::__1::char_traits<char> >:__fl <- $w24
	;DEBUG_VALUE: __pad_and_output<char, std::__1::char_traits<char> >:__s <- $x19
	.loc	2 0 9 is_stmt 0                 ; /opt/homebrew/Cellar/llvm/22.1.3/bin/../include/c++/v1/string:0:9
	cmp	x0, x23
	b.ne	LBB6_15
	b	LBB6_12
Ltmp149:
LBB6_11:
	;DEBUG_VALUE: __reset_internal_buffer:this <- [DW_OP_plus_uconst 8, DW_OP_stack_value] $sp
	;DEBUG_VALUE: ~basic_string:this <- [DW_OP_plus_uconst 8, DW_OP_stack_value] $sp
	;DEBUG_VALUE: ~basic_string:this <- [DW_OP_plus_uconst 8, DW_OP_stack_value] $sp
	;DEBUG_VALUE: __pad_and_output<char, std::__1::char_traits<char> >:__ns <- $x23
	;DEBUG_VALUE: __pad_and_output<char, std::__1::char_traits<char> >:__sz <- $x27
	;DEBUG_VALUE: __pad_and_output<char, std::__1::char_traits<char> >:__op <- $x21
	;DEBUG_VALUE: __pad_and_output<char, std::__1::char_traits<char> >:__oe <- $x22
	;DEBUG_VALUE: __pad_and_output<char, std::__1::char_traits<char> >:__iob <- $x20
	;DEBUG_VALUE: __pad_and_output<char, std::__1::char_traits<char> >:__fl <- $w24
	;DEBUG_VALUE: __pad_and_output<char, std::__1::char_traits<char> >:__s <- $x19
	;DEBUG_VALUE: __get_long_pointer:this <- [DW_OP_plus_uconst 8, DW_OP_stack_value] $sp
	.loc	2 2242 23 is_stmt 1             ; /opt/homebrew/Cellar/llvm/22.1.3/bin/../include/c++/v1/string:2242:23 @[ /opt/homebrew/Cellar/llvm/22.1.3/bin/../include/c++/v1/string:2292:44 @[ /opt/homebrew/Cellar/llvm/22.1.3/bin/../include/c++/v1/string:1210:38 @[ /opt/homebrew/Cellar/llvm/22.1.3/bin/../include/c++/v1/string:1210:36 @[ /opt/homebrew/Cellar/llvm/22.1.3/bin/../include/c++/v1/__locale_dir/pad_and_output.h:71:3 ] ] ] ]
	ldr	x8, [sp, #8]
Ltmp150:
	;DEBUG_VALUE: __get_long_cap:this <- [DW_OP_plus_uconst 8, DW_OP_stack_value] $sp
	.loc	2 2237 23 is_stmt 0             ; /opt/homebrew/Cellar/llvm/22.1.3/bin/../include/c++/v1/string:2237:23 @[ /opt/homebrew/Cellar/llvm/22.1.3/bin/../include/c++/v1/string:2292:66 @[ /opt/homebrew/Cellar/llvm/22.1.3/bin/../include/c++/v1/string:1210:38 @[ /opt/homebrew/Cellar/llvm/22.1.3/bin/../include/c++/v1/string:1210:36 @[ /opt/homebrew/Cellar/llvm/22.1.3/bin/../include/c++/v1/__locale_dir/pad_and_output.h:71:3 ] ] ] ]
	ldr	x9, [sp, #24]
Ltmp151:
	;DEBUG_VALUE: deallocate:__n <- undef
	;DEBUG_VALUE: deallocate:__n <- undef
	;DEBUG_VALUE: __libcpp_deallocate<char>:__n <- undef
	;DEBUG_VALUE: __libcpp_deallocate<char>:__size <- undef
	;DEBUG_VALUE: deallocate:__a <- [DW_OP_plus_uconst 8, DW_OP_stack_value] $sp
	;DEBUG_VALUE: deallocate:__p <- $x8
	;DEBUG_VALUE: deallocate:this <- [DW_OP_plus_uconst 8, DW_OP_stack_value] $sp
	;DEBUG_VALUE: deallocate:__p <- $x8
	;DEBUG_VALUE: __libcpp_deallocate<char>:__ptr <- $x8
	;DEBUG_VALUE: __libcpp_deallocate<char>:__align <- 1
	and	x1, x9, #0x7fffffffffffffff
	;DEBUG_VALUE: __get_long_cap:this <- [DW_OP_plus_uconst 8, DW_OP_stack_value] $sp
	mov	x24, x0
Ltmp152:
	.loc	47 62 10 is_stmt 1              ; /opt/homebrew/Cellar/llvm/22.1.3/bin/../include/c++/v1/__new/allocate.h:62:10 @[ /opt/homebrew/Cellar/llvm/22.1.3/bin/../include/c++/v1/__memory/allocator.h:107:7 @[ /opt/homebrew/Cellar/llvm/22.1.3/bin/../include/c++/v1/__memory/allocator_traits.h:289:9 @[ /opt/homebrew/Cellar/llvm/22.1.3/bin/../include/c++/v1/string:2292:7 @[ /opt/homebrew/Cellar/llvm/22.1.3/bin/../include/c++/v1/string:1210:38 @[ /opt/homebrew/Cellar/llvm/22.1.3/bin/../include/c++/v1/string:1210:36 @[ /opt/homebrew/Cellar/llvm/22.1.3/bin/../include/c++/v1/__locale_dir/pad_and_output.h:71:3 ] ] ] ] ] ]
	mov	x0, x8
	;DEBUG_VALUE: deallocate:__a <- [DW_OP_plus_uconst 8, DW_OP_stack_value] $sp
	;DEBUG_VALUE: deallocate:this <- [DW_OP_plus_uconst 8, DW_OP_stack_value] $sp
	;DEBUG_VALUE: __libcpp_deallocate<char>:__align <- 1
	bl	__ZdlPvm
Ltmp153:
	.loc	47 0 10 is_stmt 0               ; /opt/homebrew/Cellar/llvm/22.1.3/bin/../include/c++/v1/__new/allocate.h:0:10
	mov	x0, x24
	cmp	x0, x23
	b.ne	LBB6_15
Ltmp154:
LBB6_12:
	;DEBUG_VALUE: __pad_and_output<char, std::__1::char_traits<char> >:__ns <- $x23
	;DEBUG_VALUE: __pad_and_output<char, std::__1::char_traits<char> >:__sz <- $x27
	;DEBUG_VALUE: __pad_and_output<char, std::__1::char_traits<char> >:__op <- $x21
	;DEBUG_VALUE: __pad_and_output<char, std::__1::char_traits<char> >:__oe <- $x22
	;DEBUG_VALUE: __pad_and_output<char, std::__1::char_traits<char> >:__iob <- $x20
	;DEBUG_VALUE: __pad_and_output<char, std::__1::char_traits<char> >:__s <- $x19
	;DEBUG_VALUE: __pad_and_output<char, std::__1::char_traits<char> >:__s <- $x19
	.loc	46 72 15 is_stmt 1              ; /opt/homebrew/Cellar/llvm/22.1.3/bin/../include/c++/v1/__locale_dir/pad_and_output.h:72:15
	sub	x22, x22, x21
Ltmp155:
	;DEBUG_VALUE: __pad_and_output<char, std::__1::char_traits<char> >:__oe <- [DW_OP_LLVM_entry_value 1] $x3
	;DEBUG_VALUE: __pad_and_output<char, std::__1::char_traits<char> >:__np <- $x22
	.loc	46 73 12                        ; /opt/homebrew/Cellar/llvm/22.1.3/bin/../include/c++/v1/__locale_dir/pad_and_output.h:73:12
	cmp	x22, #1
	b.lt	LBB6_14
Ltmp156:
; %bb.13:
	;DEBUG_VALUE: __pad_and_output<char, std::__1::char_traits<char> >:__np <- $x22
	;DEBUG_VALUE: __pad_and_output<char, std::__1::char_traits<char> >:__oe <- [DW_OP_LLVM_entry_value 1] $x3
	;DEBUG_VALUE: __pad_and_output<char, std::__1::char_traits<char> >:__ns <- $x23
	;DEBUG_VALUE: __pad_and_output<char, std::__1::char_traits<char> >:__sz <- $x27
	;DEBUG_VALUE: __pad_and_output<char, std::__1::char_traits<char> >:__op <- $x21
	;DEBUG_VALUE: __pad_and_output<char, std::__1::char_traits<char> >:__iob <- $x20
	;DEBUG_VALUE: __pad_and_output<char, std::__1::char_traits<char> >:__s <- $x19
	;DEBUG_VALUE: sputn:this <- $x19
	;DEBUG_VALUE: sputn:__s <- $x21
	;DEBUG_VALUE: sputn:__n <- $x22
	.loc	33 255 12                       ; /opt/homebrew/Cellar/llvm/22.1.3/bin/../include/c++/v1/streambuf:255:12 @[ /opt/homebrew/Cellar/llvm/22.1.3/bin/../include/c++/v1/__locale_dir/pad_and_output.h:74:22 ]
	ldr	x8, [x19]
	ldr	x8, [x8, #96]
	mov	x0, x19
	mov	x1, x21
	mov	x2, x22
	blr	x8
Ltmp157:
	.loc	46 74 40                        ; /opt/homebrew/Cellar/llvm/22.1.3/bin/../include/c++/v1/__locale_dir/pad_and_output.h:74:40
	cmp	x0, x22
	b.ne	LBB6_15
Ltmp158:
LBB6_14:
	;DEBUG_VALUE: __pad_and_output<char, std::__1::char_traits<char> >:__np <- $x22
	;DEBUG_VALUE: __pad_and_output<char, std::__1::char_traits<char> >:__oe <- [DW_OP_LLVM_entry_value 1] $x3
	;DEBUG_VALUE: __pad_and_output<char, std::__1::char_traits<char> >:__ns <- $x23
	;DEBUG_VALUE: __pad_and_output<char, std::__1::char_traits<char> >:__sz <- $x27
	;DEBUG_VALUE: __pad_and_output<char, std::__1::char_traits<char> >:__op <- $x21
	;DEBUG_VALUE: __pad_and_output<char, std::__1::char_traits<char> >:__iob <- $x20
	;DEBUG_VALUE: __pad_and_output<char, std::__1::char_traits<char> >:__s <- $x19
	;DEBUG_VALUE: width:this <- $x20
	;DEBUG_VALUE: width:__wide <- 0
	;DEBUG_VALUE: width:__r <- undef
	.loc	24 501 12                       ; /opt/homebrew/Cellar/llvm/22.1.3/bin/../include/c++/v1/ios:501:12 @[ /opt/homebrew/Cellar/llvm/22.1.3/bin/../include/c++/v1/__locale_dir/pad_and_output.h:79:9 ]
	str	xzr, [x20, #24]
	b	LBB6_16
Ltmp159:
LBB6_15:
	;DEBUG_VALUE: __pad_and_output<char, std::__1::char_traits<char> >:__ns <- $x23
	;DEBUG_VALUE: __pad_and_output<char, std::__1::char_traits<char> >:__sz <- $x27
	;DEBUG_VALUE: __pad_and_output<char, std::__1::char_traits<char> >:__op <- $x21
	;DEBUG_VALUE: __pad_and_output<char, std::__1::char_traits<char> >:__iob <- $x20
	;DEBUG_VALUE: __pad_and_output<char, std::__1::char_traits<char> >:__s <- $x19
	.loc	24 0 12 is_stmt 0               ; /opt/homebrew/Cellar/llvm/22.1.3/bin/../include/c++/v1/ios:0:12
	mov	x19, #0                         ; =0x0
Ltmp160:
LBB6_16:
	.loc	46 81 1 is_stmt 1               ; /opt/homebrew/Cellar/llvm/22.1.3/bin/../include/c++/v1/__locale_dir/pad_and_output.h:81:1
	mov	x0, x19
	.loc	46 81 1 epilogue_begin is_stmt 0 ; /opt/homebrew/Cellar/llvm/22.1.3/bin/../include/c++/v1/__locale_dir/pad_and_output.h:81:1
	ldp	x29, x30, [sp, #112]            ; 16-byte Folded Reload
	ldp	x20, x19, [sp, #96]             ; 16-byte Folded Reload
	ldp	x22, x21, [sp, #80]             ; 16-byte Folded Reload
	ldp	x24, x23, [sp, #64]             ; 16-byte Folded Reload
	ldp	x26, x25, [sp, #48]             ; 16-byte Folded Reload
	ldp	x28, x27, [sp, #32]             ; 16-byte Folded Reload
	add	sp, sp, #128
	ret
LBB6_17:
Ltmp161:
	;DEBUG_VALUE: __init_internal_buffer:__size <- $x23
	;DEBUG_VALUE: __init_internal_buffer:this <- [DW_OP_plus_uconst 8, DW_OP_stack_value] $sp
	;DEBUG_VALUE: __init:__c <- $w24
	;DEBUG_VALUE: __init:__n <- $x23
	;DEBUG_VALUE: __init:this <- [DW_OP_plus_uconst 8, DW_OP_stack_value] $sp
	;DEBUG_VALUE: basic_string:__c <- $w24
	;DEBUG_VALUE: basic_string:__n <- $x23
	;DEBUG_VALUE: basic_string:this <- [DW_OP_plus_uconst 8, DW_OP_stack_value] $sp
	;DEBUG_VALUE: basic_string:__c <- $w24
	;DEBUG_VALUE: basic_string:__n <- $x23
	;DEBUG_VALUE: basic_string:this <- [DW_OP_plus_uconst 8, DW_OP_stack_value] $sp
	;DEBUG_VALUE: __pad_and_output<char, std::__1::char_traits<char> >:__np <- $x25
	;DEBUG_VALUE: __pad_and_output<char, std::__1::char_traits<char> >:__ns <- $x23
	;DEBUG_VALUE: __pad_and_output<char, std::__1::char_traits<char> >:__sz <- $x27
	;DEBUG_VALUE: __pad_and_output<char, std::__1::char_traits<char> >:__op <- $x21
	;DEBUG_VALUE: __pad_and_output<char, std::__1::char_traits<char> >:__oe <- $x22
	;DEBUG_VALUE: __pad_and_output<char, std::__1::char_traits<char> >:__iob <- $x20
	;DEBUG_VALUE: __pad_and_output<char, std::__1::char_traits<char> >:__fl <- $w24
	;DEBUG_VALUE: __pad_and_output<char, std::__1::char_traits<char> >:__s <- $x19
	.loc	2 2303 7 is_stmt 1              ; /opt/homebrew/Cellar/llvm/22.1.3/bin/../include/c++/v1/string:2303:7 @[ /opt/homebrew/Cellar/llvm/22.1.3/bin/../include/c++/v1/string:2677:17 @[ /opt/homebrew/Cellar/llvm/22.1.3/bin/../include/c++/v1/string:1093:196 @[ /opt/homebrew/Cellar/llvm/22.1.3/bin/../include/c++/v1/string:1093:194 @[ /opt/homebrew/Cellar/llvm/22.1.3/bin/../include/c++/v1/__locale_dir/pad_and_output.h:66:35 ] ] ] ]
	bl	__ZNSt3__112basic_stringIcNS_11char_traitsIcEENS_9allocatorIcEEE20__throw_length_errorB9nqe220103Ev
Ltmp162:
LBB6_18:
	;DEBUG_VALUE: __pad_and_output<char, std::__1::char_traits<char> >:__ns <- $x23
	;DEBUG_VALUE: __pad_and_output<char, std::__1::char_traits<char> >:__sz <- $x27
	;DEBUG_VALUE: __pad_and_output<char, std::__1::char_traits<char> >:__op <- $x21
	;DEBUG_VALUE: __pad_and_output<char, std::__1::char_traits<char> >:__oe <- $x22
	;DEBUG_VALUE: __pad_and_output<char, std::__1::char_traits<char> >:__iob <- $x20
	;DEBUG_VALUE: __pad_and_output<char, std::__1::char_traits<char> >:__fl <- $w24
	;DEBUG_VALUE: __pad_and_output<char, std::__1::char_traits<char> >:__s <- $x19
Ltmp29:                                 ; EH_LABEL
	.loc	2 0 7 is_stmt 0                 ; /opt/homebrew/Cellar/llvm/22.1.3/bin/../include/c++/v1/string:0:7
	mov	x19, x0
Ltmp163:
	;DEBUG_VALUE: __pad_and_output<char, std::__1::char_traits<char> >:__s <- [DW_OP_LLVM_entry_value 1] $x0
	;DEBUG_VALUE: ~basic_string:this <- [DW_OP_plus_uconst 8, DW_OP_stack_value] $sp
	;DEBUG_VALUE: ~basic_string:this <- [DW_OP_plus_uconst 8, DW_OP_stack_value] $sp
	;DEBUG_VALUE: __reset_internal_buffer:this <- [DW_OP_plus_uconst 8, DW_OP_stack_value] $sp
	;DEBUG_VALUE: __reset_internal_buffer:__new_rep <- undef
	;DEBUG_VALUE: __is_long:this <- [DW_OP_plus_uconst 8, DW_OP_stack_value] $sp
	.loc	2 2142 23                       ; /opt/homebrew/Cellar/llvm/22.1.3/bin/../include/c++/v1/string:2142:23 @[ /opt/homebrew/Cellar/llvm/22.1.3/bin/../include/c++/v1/string:2291:9 @[ /opt/homebrew/Cellar/llvm/22.1.3/bin/../include/c++/v1/string:1210:38 @[ /opt/homebrew/Cellar/llvm/22.1.3/bin/../include/c++/v1/string:1210:36 @[ /opt/homebrew/Cellar/llvm/22.1.3/bin/../include/c++/v1/__locale_dir/pad_and_output.h:71:3 ] ] ] ]
	ldrsb	w8, [sp, #31]
Ltmp164:
	.loc	2 2291 9 is_stmt 1              ; /opt/homebrew/Cellar/llvm/22.1.3/bin/../include/c++/v1/string:2291:9 @[ /opt/homebrew/Cellar/llvm/22.1.3/bin/../include/c++/v1/string:1210:38 @[ /opt/homebrew/Cellar/llvm/22.1.3/bin/../include/c++/v1/string:1210:36 @[ /opt/homebrew/Cellar/llvm/22.1.3/bin/../include/c++/v1/__locale_dir/pad_and_output.h:71:3 ] ] ]
	tbz	w8, #31, LBB6_20
Ltmp165:
; %bb.19:
	;DEBUG_VALUE: __reset_internal_buffer:this <- [DW_OP_plus_uconst 8, DW_OP_stack_value] $sp
	;DEBUG_VALUE: ~basic_string:this <- [DW_OP_plus_uconst 8, DW_OP_stack_value] $sp
	;DEBUG_VALUE: ~basic_string:this <- [DW_OP_plus_uconst 8, DW_OP_stack_value] $sp
	;DEBUG_VALUE: __pad_and_output<char, std::__1::char_traits<char> >:__s <- [DW_OP_LLVM_entry_value 1] $x0
	;DEBUG_VALUE: __pad_and_output<char, std::__1::char_traits<char> >:__ns <- $x23
	;DEBUG_VALUE: __pad_and_output<char, std::__1::char_traits<char> >:__sz <- $x27
	;DEBUG_VALUE: __pad_and_output<char, std::__1::char_traits<char> >:__op <- $x21
	;DEBUG_VALUE: __pad_and_output<char, std::__1::char_traits<char> >:__oe <- $x22
	;DEBUG_VALUE: __pad_and_output<char, std::__1::char_traits<char> >:__iob <- $x20
	;DEBUG_VALUE: __pad_and_output<char, std::__1::char_traits<char> >:__fl <- $w24
	;DEBUG_VALUE: __get_long_pointer:this <- [DW_OP_plus_uconst 8, DW_OP_stack_value] $sp
	.loc	2 2242 23                       ; /opt/homebrew/Cellar/llvm/22.1.3/bin/../include/c++/v1/string:2242:23 @[ /opt/homebrew/Cellar/llvm/22.1.3/bin/../include/c++/v1/string:2292:44 @[ /opt/homebrew/Cellar/llvm/22.1.3/bin/../include/c++/v1/string:1210:38 @[ /opt/homebrew/Cellar/llvm/22.1.3/bin/../include/c++/v1/string:1210:36 @[ /opt/homebrew/Cellar/llvm/22.1.3/bin/../include/c++/v1/__locale_dir/pad_and_output.h:71:3 ] ] ] ]
	ldr	x0, [sp, #8]
Ltmp166:
	;DEBUG_VALUE: __get_long_cap:this <- [DW_OP_plus_uconst 8, DW_OP_stack_value] $sp
	.loc	2 2237 23 is_stmt 0             ; /opt/homebrew/Cellar/llvm/22.1.3/bin/../include/c++/v1/string:2237:23 @[ /opt/homebrew/Cellar/llvm/22.1.3/bin/../include/c++/v1/string:2292:66 @[ /opt/homebrew/Cellar/llvm/22.1.3/bin/../include/c++/v1/string:1210:38 @[ /opt/homebrew/Cellar/llvm/22.1.3/bin/../include/c++/v1/string:1210:36 @[ /opt/homebrew/Cellar/llvm/22.1.3/bin/../include/c++/v1/__locale_dir/pad_and_output.h:71:3 ] ] ] ]
	ldr	x8, [sp, #24]
Ltmp167:
	;DEBUG_VALUE: deallocate:__n <- undef
	;DEBUG_VALUE: deallocate:__n <- undef
	;DEBUG_VALUE: __libcpp_deallocate<char>:__n <- undef
	;DEBUG_VALUE: __libcpp_deallocate<char>:__size <- undef
	;DEBUG_VALUE: deallocate:__a <- [DW_OP_plus_uconst 8, DW_OP_stack_value] $sp
	;DEBUG_VALUE: deallocate:__p <- $x0
	;DEBUG_VALUE: deallocate:this <- [DW_OP_plus_uconst 8, DW_OP_stack_value] $sp
	;DEBUG_VALUE: deallocate:__p <- $x0
	;DEBUG_VALUE: __libcpp_deallocate<char>:__ptr <- $x0
	;DEBUG_VALUE: __libcpp_deallocate<char>:__align <- 1
	and	x1, x8, #0x7fffffffffffffff
Ltmp168:
	;DEBUG_VALUE: __get_long_cap:this <- [DW_OP_plus_uconst 8, DW_OP_stack_value] $sp
	;DEBUG_VALUE: deallocate:__a <- [DW_OP_plus_uconst 8, DW_OP_stack_value] $sp
	;DEBUG_VALUE: deallocate:this <- [DW_OP_plus_uconst 8, DW_OP_stack_value] $sp
	;DEBUG_VALUE: __libcpp_deallocate<char>:__align <- 1
	.loc	47 62 10 is_stmt 1              ; /opt/homebrew/Cellar/llvm/22.1.3/bin/../include/c++/v1/__new/allocate.h:62:10 @[ /opt/homebrew/Cellar/llvm/22.1.3/bin/../include/c++/v1/__memory/allocator.h:107:7 @[ /opt/homebrew/Cellar/llvm/22.1.3/bin/../include/c++/v1/__memory/allocator_traits.h:289:9 @[ /opt/homebrew/Cellar/llvm/22.1.3/bin/../include/c++/v1/string:2292:7 @[ /opt/homebrew/Cellar/llvm/22.1.3/bin/../include/c++/v1/string:1210:38 @[ /opt/homebrew/Cellar/llvm/22.1.3/bin/../include/c++/v1/string:1210:36 @[ /opt/homebrew/Cellar/llvm/22.1.3/bin/../include/c++/v1/__locale_dir/pad_and_output.h:71:3 ] ] ] ] ] ]
	bl	__ZdlPvm
Ltmp169:
LBB6_20:                                ; %_ZNSt3__112basic_stringIcNS_11char_traitsIcEENS_9allocatorIcEEED1Ev.exit44
	;DEBUG_VALUE: __reset_internal_buffer:this <- [DW_OP_plus_uconst 8, DW_OP_stack_value] $sp
	;DEBUG_VALUE: ~basic_string:this <- [DW_OP_plus_uconst 8, DW_OP_stack_value] $sp
	;DEBUG_VALUE: ~basic_string:this <- [DW_OP_plus_uconst 8, DW_OP_stack_value] $sp
	;DEBUG_VALUE: __pad_and_output<char, std::__1::char_traits<char> >:__s <- [DW_OP_LLVM_entry_value 1] $x0
	;DEBUG_VALUE: __pad_and_output<char, std::__1::char_traits<char> >:__ns <- $x23
	;DEBUG_VALUE: __pad_and_output<char, std::__1::char_traits<char> >:__sz <- $x27
	;DEBUG_VALUE: __pad_and_output<char, std::__1::char_traits<char> >:__op <- $x21
	;DEBUG_VALUE: __pad_and_output<char, std::__1::char_traits<char> >:__oe <- $x22
	;DEBUG_VALUE: __pad_and_output<char, std::__1::char_traits<char> >:__iob <- $x20
	;DEBUG_VALUE: __pad_and_output<char, std::__1::char_traits<char> >:__fl <- $w24
	.loc	47 0 10 is_stmt 0               ; /opt/homebrew/Cellar/llvm/22.1.3/bin/../include/c++/v1/__new/allocate.h:0:10
	mov	x0, x19
	bl	__Unwind_Resume
Ltmp170:
Lfunc_end6:
	.cfi_endproc
	.file	49 "/opt/homebrew/Cellar/llvm/22.1.3/bin/../include/c++/v1/__type_traits" "type_identity.h"
	.file	50 "/opt/homebrew/Cellar/llvm/22.1.3/bin/../include/c++/v1/__new" "global_new_delete.h"
	.section	__TEXT,__gcc_except_tab
	.p2align	2, 0x0
GCC_except_table6:
Lexception2:
	.byte	255                             ; @LPStart Encoding = omit
	.byte	255                             ; @TType Encoding = omit
	.byte	1                               ; Call site Encoding = uleb128
	.uleb128 Lcst_end2-Lcst_begin2
Lcst_begin2:
	.uleb128 Lfunc_begin6-Lfunc_begin6      ; >> Call Site 1 <<
	.uleb128 Ltmp27-Lfunc_begin6            ;   Call between Lfunc_begin6 and Ltmp27
	.byte	0                               ;     has no landing pad
	.byte	0                               ;   On action: cleanup
	.uleb128 Ltmp27-Lfunc_begin6            ; >> Call Site 2 <<
	.uleb128 Ltmp28-Ltmp27                  ;   Call between Ltmp27 and Ltmp28
	.uleb128 Ltmp29-Lfunc_begin6            ;     jumps to Ltmp29
	.byte	0                               ;   On action: cleanup
	.uleb128 Ltmp28-Lfunc_begin6            ; >> Call Site 3 <<
	.uleb128 Lfunc_end6-Ltmp28              ;   Call between Ltmp28 and Lfunc_end6
	.byte	0                               ;     has no landing pad
	.byte	0                               ;   On action: cleanup
Lcst_end2:
	.p2align	2, 0x0
                                        ; -- End function
	.section	__TEXT,__text,regular,pure_instructions
	.private_extern	___clang_call_terminate ; -- Begin function __clang_call_terminate
	.globl	___clang_call_terminate
	.weak_def_can_be_hidden	___clang_call_terminate
	.p2align	2
___clang_call_terminate:                ; @__clang_call_terminate
Lfunc_begin7:
	.cfi_startproc
; %bb.0:
	stp	x29, x30, [sp, #-16]!           ; 16-byte Folded Spill
	mov	x29, sp
	.cfi_def_cfa w29, 16
	.cfi_offset w30, -8
	.cfi_offset w29, -16
	bl	___cxa_begin_catch
	bl	__ZSt9terminatev
Lfunc_end7:
	.cfi_endproc
                                        ; -- End function
	.private_extern	__ZNSt3__112basic_stringIcNS_11char_traitsIcEENS_9allocatorIcEEE20__throw_length_errorB9nqe220103Ev ; -- Begin function _ZNSt3__112basic_stringIcNS_11char_traitsIcEENS_9allocatorIcEEE20__throw_length_errorB9nqe220103Ev
	.globl	__ZNSt3__112basic_stringIcNS_11char_traitsIcEENS_9allocatorIcEEE20__throw_length_errorB9nqe220103Ev
	.weak_def_can_be_hidden	__ZNSt3__112basic_stringIcNS_11char_traitsIcEENS_9allocatorIcEEE20__throw_length_errorB9nqe220103Ev
	.p2align	2
__ZNSt3__112basic_stringIcNS_11char_traitsIcEENS_9allocatorIcEEE20__throw_length_errorB9nqe220103Ev: ; @_ZNSt3__112basic_stringIcNS_11char_traitsIcEENS_9allocatorIcEEE20__throw_length_errorB9nqe220103Ev
Lfunc_begin8:
	.loc	2 2560 0 is_stmt 1              ; /opt/homebrew/Cellar/llvm/22.1.3/bin/../include/c++/v1/string:2560:0
	.cfi_startproc
; %bb.0:
	stp	x29, x30, [sp, #-16]!           ; 16-byte Folded Spill
	mov	x29, sp
	.cfi_def_cfa w29, 16
	.cfi_offset w30, -8
	.cfi_offset w29, -16
Ltmp171:
	.loc	2 2561 5 prologue_end           ; /opt/homebrew/Cellar/llvm/22.1.3/bin/../include/c++/v1/string:2561:5
Lloh21:
	adrp	x0, l_.str.3@PAGE
Lloh22:
	add	x0, x0, l_.str.3@PAGEOFF
	bl	__ZNSt3__120__throw_length_errorB9nqe220103EPKc
Ltmp172:
	.loh AdrpAdd	Lloh21, Lloh22
Lfunc_end8:
	.cfi_endproc
                                        ; -- End function
	.private_extern	__ZNSt3__120__throw_length_errorB9nqe220103EPKc ; -- Begin function _ZNSt3__120__throw_length_errorB9nqe220103EPKc
	.globl	__ZNSt3__120__throw_length_errorB9nqe220103EPKc
	.weak_def_can_be_hidden	__ZNSt3__120__throw_length_errorB9nqe220103EPKc
	.p2align	2
__ZNSt3__120__throw_length_errorB9nqe220103EPKc: ; @_ZNSt3__120__throw_length_errorB9nqe220103EPKc
Lfunc_begin9:
	.loc	4 241 0                         ; /opt/homebrew/Cellar/llvm/22.1.3/bin/../include/c++/v1/stdexcept:241:0
	.cfi_startproc
	.cfi_personality 155, ___gxx_personality_v0
	.cfi_lsda 16, Lexception3
; %bb.0:
	;DEBUG_VALUE: __throw_length_error:__msg <- $x0
	stp	x20, x19, [sp, #-32]!           ; 16-byte Folded Spill
	stp	x29, x30, [sp, #16]             ; 16-byte Folded Spill
	add	x29, sp, #16
	.cfi_def_cfa w29, 16
	.cfi_offset w30, -8
	.cfi_offset w29, -16
	.cfi_offset w19, -24
	.cfi_offset w20, -32
	mov	x20, x0
Ltmp173:
	;DEBUG_VALUE: __throw_length_error:__msg <- $x20
	.loc	4 243 3 prologue_end            ; /opt/homebrew/Cellar/llvm/22.1.3/bin/../include/c++/v1/stdexcept:243:3
	mov	w0, #16                         ; =0x10
	bl	___cxa_allocate_exception
Ltmp174:
	.loc	4 243 3                         ; /opt/homebrew/Cellar/llvm/22.1.3/bin/../include/c++/v1/stdexcept:243:3
	mov	x19, x0
Ltmp30:                                 ; EH_LABEL
	.loc	4 243 9 is_stmt 0               ; /opt/homebrew/Cellar/llvm/22.1.3/bin/../include/c++/v1/stdexcept:243:9
	mov	x1, x20
Ltmp175:
	;DEBUG_VALUE: __throw_length_error:__msg <- $x1
	bl	__ZNSt12length_errorC1B9nqe220103EPKc
Ltmp176:
Ltmp31:                                 ; EH_LABEL
; %bb.1:
	.loc	4 243 3 is_stmt 1               ; /opt/homebrew/Cellar/llvm/22.1.3/bin/../include/c++/v1/stdexcept:243:3
Lloh23:
	adrp	x1, __ZTISt12length_error@GOTPAGE
Lloh24:
	ldr	x1, [x1, __ZTISt12length_error@GOTPAGEOFF]
Lloh25:
	adrp	x2, __ZNSt12length_errorD1Ev@GOTPAGE
Lloh26:
	ldr	x2, [x2, __ZNSt12length_errorD1Ev@GOTPAGEOFF]
	mov	x0, x19
	bl	___cxa_throw
Ltmp177:
LBB9_2:
Ltmp32:                                 ; EH_LABEL
	.loc	4 0 3 is_stmt 0                 ; /opt/homebrew/Cellar/llvm/22.1.3/bin/../include/c++/v1/stdexcept:0:3
	mov	x20, x0
	.loc	4 243 3 is_stmt 1               ; /opt/homebrew/Cellar/llvm/22.1.3/bin/../include/c++/v1/stdexcept:243:3
	mov	x0, x19
	bl	___cxa_free_exception
Ltmp178:
	.loc	4 0 3 is_stmt 0                 ; /opt/homebrew/Cellar/llvm/22.1.3/bin/../include/c++/v1/stdexcept:0:3
	mov	x0, x20
	bl	__Unwind_Resume
Ltmp179:
	.loh AdrpLdrGot	Lloh25, Lloh26
	.loh AdrpLdrGot	Lloh23, Lloh24
Lfunc_end9:
	.cfi_endproc
	.section	__TEXT,__gcc_except_tab
	.p2align	2, 0x0
GCC_except_table9:
Lexception3:
	.byte	255                             ; @LPStart Encoding = omit
	.byte	255                             ; @TType Encoding = omit
	.byte	1                               ; Call site Encoding = uleb128
	.uleb128 Lcst_end3-Lcst_begin3
Lcst_begin3:
	.uleb128 Lfunc_begin9-Lfunc_begin9      ; >> Call Site 1 <<
	.uleb128 Ltmp30-Lfunc_begin9            ;   Call between Lfunc_begin9 and Ltmp30
	.byte	0                               ;     has no landing pad
	.byte	0                               ;   On action: cleanup
	.uleb128 Ltmp30-Lfunc_begin9            ; >> Call Site 2 <<
	.uleb128 Ltmp31-Ltmp30                  ;   Call between Ltmp30 and Ltmp31
	.uleb128 Ltmp32-Lfunc_begin9            ;     jumps to Ltmp32
	.byte	0                               ;   On action: cleanup
	.uleb128 Ltmp31-Lfunc_begin9            ; >> Call Site 3 <<
	.uleb128 Lfunc_end9-Ltmp31              ;   Call between Ltmp31 and Lfunc_end9
	.byte	0                               ;     has no landing pad
	.byte	0                               ;   On action: cleanup
Lcst_end3:
	.p2align	2, 0x0
                                        ; -- End function
	.section	__TEXT,__text,regular,pure_instructions
	.private_extern	__ZNSt12length_errorC1B9nqe220103EPKc ; -- Begin function _ZNSt12length_errorC1B9nqe220103EPKc
	.globl	__ZNSt12length_errorC1B9nqe220103EPKc
	.weak_def_can_be_hidden	__ZNSt12length_errorC1B9nqe220103EPKc
	.p2align	2
__ZNSt12length_errorC1B9nqe220103EPKc:  ; @_ZNSt12length_errorC1B9nqe220103EPKc
Lfunc_begin10:
	.loc	4 154 0 is_stmt 1               ; /opt/homebrew/Cellar/llvm/22.1.3/bin/../include/c++/v1/stdexcept:154:0
	.cfi_startproc
; %bb.0:
	;DEBUG_VALUE: length_error:this <- $x0
	;DEBUG_VALUE: length_error:__s <- $x1
	;DEBUG_VALUE: length_error:this <- $x0
	;DEBUG_VALUE: length_error:__s <- $x1
	stp	x29, x30, [sp, #-16]!           ; 16-byte Folded Spill
	mov	x29, sp
	.cfi_def_cfa w29, 16
	.cfi_offset w30, -8
	.cfi_offset w29, -16
Ltmp180:
	.loc	4 154 185 prologue_end          ; /opt/homebrew/Cellar/llvm/22.1.3/bin/../include/c++/v1/stdexcept:154:185 @[ /opt/homebrew/Cellar/llvm/22.1.3/bin/../include/c++/v1/stdexcept:154:202 ]
	bl	__ZNSt11logic_errorC2EPKc
Ltmp181:
	;DEBUG_VALUE: length_error:__s <- [DW_OP_LLVM_entry_value 1] $x1
	.loc	4 154 202                       ; /opt/homebrew/Cellar/llvm/22.1.3/bin/../include/c++/v1/stdexcept:154:202 @[ /opt/homebrew/Cellar/llvm/22.1.3/bin/../include/c++/v1/stdexcept:154:202 ]
Lloh27:
	adrp	x8, __ZTVSt12length_error@GOTPAGE
Lloh28:
	ldr	x8, [x8, __ZTVSt12length_error@GOTPAGEOFF]
	add	x8, x8, #16
	str	x8, [x0]
Ltmp182:
	.loc	4 154 203 epilogue_begin is_stmt 0 ; /opt/homebrew/Cellar/llvm/22.1.3/bin/../include/c++/v1/stdexcept:154:203
	ldp	x29, x30, [sp], #16             ; 16-byte Folded Reload
	ret
Ltmp183:
	.loh AdrpLdrGot	Lloh27, Lloh28
Lfunc_end10:
	.cfi_endproc
                                        ; -- End function
	.section	__TEXT,__cstring,cstring_literals
l_.str:                                 ; @.str
	.asciz	"specialized int\n"

l_.str.1:                               ; @.str.1
	.asciz	"normal function\n"

l_.str.2:                               ; @.str.2
	.asciz	"int\n"

l_.str.3:                               ; @.str.3
	.asciz	"basic_string"

	.file	51 "/opt/homebrew/Cellar/llvm/22.1.3/lib/clang/22/include" "__stddef_max_align_t.h"
	.file	52 "/opt/homebrew/Cellar/llvm/22.1.3/bin/../include/c++/v1/__cstddef" "max_align_t.h"
	.file	53 "/Library/Developer/CommandLineTools/SDKs/MacOSX26.sdk/usr/include/sys/_types" "_int8_t.h"
	.file	54 "/opt/homebrew/Cellar/llvm/22.1.3/bin/../include/c++/v1" "cstdint"
	.file	55 "/Library/Developer/CommandLineTools/SDKs/MacOSX26.sdk/usr/include/sys/_types" "_int16_t.h"
	.file	56 "/Library/Developer/CommandLineTools/SDKs/MacOSX26.sdk/usr/include/sys/_types" "_int64_t.h"
	.file	57 "/Library/Developer/CommandLineTools/SDKs/MacOSX26.sdk/usr/include/_types" "_uint8_t.h"
	.file	58 "/Library/Developer/CommandLineTools/SDKs/MacOSX26.sdk/usr/include/_types" "_uint16_t.h"
	.file	59 "/Library/Developer/CommandLineTools/SDKs/MacOSX26.sdk/usr/include/_types" "_uint64_t.h"
	.file	60 "/Library/Developer/CommandLineTools/SDKs/MacOSX26.sdk/usr/include" "stdint.h"
	.file	61 "/Library/Developer/CommandLineTools/SDKs/MacOSX26.sdk/usr/include/arm" "_types.h"
	.file	62 "/Library/Developer/CommandLineTools/SDKs/MacOSX26.sdk/usr/include/sys/_types" "_intptr_t.h"
	.file	63 "/Library/Developer/CommandLineTools/SDKs/MacOSX26.sdk/usr/include/_types" "_intmax_t.h"
	.file	64 "/Library/Developer/CommandLineTools/SDKs/MacOSX26.sdk/usr/include/_types" "_uintmax_t.h"
	.file	65 "/opt/homebrew/Cellar/llvm/22.1.3/bin/../include/c++/v1/__math" "traits.h"
	.file	66 "/opt/homebrew/Cellar/llvm/22.1.3/bin/../include/c++/v1" "math.h"
	.file	67 "/opt/homebrew/Cellar/llvm/22.1.3/bin/../include/c++/v1/__math" "modulo.h"
	.file	68 "/opt/homebrew/Cellar/llvm/22.1.3/bin/../include/c++/v1" "cmath"
	.file	69 "/Library/Developer/CommandLineTools/SDKs/MacOSX26.sdk/usr/include" "math.h"
	.file	70 "/Library/Developer/CommandLineTools/SDKs/MacOSX26.sdk/usr/include" "_stdlib.h"
	.file	71 "/opt/homebrew/Cellar/llvm/22.1.3/bin/../include/c++/v1" "cstdlib"
	.file	72 "/Library/Developer/CommandLineTools/SDKs/MacOSX26.sdk/usr/include/malloc" "_malloc.h"
	.file	73 "/opt/homebrew/Cellar/llvm/22.1.3/lib/clang/22/include" "__stddef_size_t.h"
	.file	74 "/Library/Developer/CommandLineTools/SDKs/MacOSX26.sdk/usr/include" "_abort.h"
	.file	75 "/opt/homebrew/Cellar/llvm/22.1.3/bin/../include/c++/v1" "stdlib.h"
	.file	76 "/Library/Developer/CommandLineTools/SDKs/MacOSX26.sdk/usr/include/sys/_types" "_mbstate_t.h"
	.file	77 "/opt/homebrew/Cellar/llvm/22.1.3/bin/../include/c++/v1" "__std_mbstate_t.h"
	.file	78 "/Library/Developer/CommandLineTools/SDKs/MacOSX26.sdk/usr/include" "_string.h"
	.file	79 "/opt/homebrew/Cellar/llvm/22.1.3/bin/../include/c++/v1" "cstring"
	.file	80 "/opt/homebrew/Cellar/llvm/22.1.3/bin/../include/c++/v1" "string.h"
	.file	81 "/Library/Developer/CommandLineTools/SDKs/MacOSX26.sdk/usr/include" "_ctype.h"
	.file	82 "/opt/homebrew/Cellar/llvm/22.1.3/bin/../include/c++/v1" "cctype"
	.file	83 "/Library/Developer/CommandLineTools/SDKs/MacOSX26.sdk/usr/include/sys/_types" "_wint_t.h"
	.file	84 "/opt/homebrew/Cellar/llvm/22.1.3/bin/../include/c++/v1" "cwctype"
	.file	85 "/Library/Developer/CommandLineTools/SDKs/MacOSX26.sdk/usr/include" "_types.h"
	.file	86 "/Library/Developer/CommandLineTools/SDKs/MacOSX26.sdk/usr/include/_types" "_wctrans_t.h"
	.file	87 "/Library/Developer/CommandLineTools/SDKs/MacOSX26.sdk/usr/include/_types" "_wctype_t.h"
	.file	88 "/Library/Developer/CommandLineTools/SDKs/MacOSX26.sdk/usr/include" "___wctype.h"
	.file	89 "/Library/Developer/CommandLineTools/SDKs/MacOSX26.sdk/usr/include" "_wctype.h"
	.file	90 "/opt/homebrew/Cellar/llvm/22.1.3/bin/../include/c++/v1" "cwchar"
	.file	91 "/Library/Developer/CommandLineTools/SDKs/MacOSX26.sdk/usr/include" "_time.h"
	.file	92 "/Library/Developer/CommandLineTools/SDKs/MacOSX26.sdk/usr/include" "_stdio.h"
	.file	93 "/Library/Developer/CommandLineTools/SDKs/MacOSX26.sdk/usr/include/sys" "_types.h"
	.file	94 "/Library/Developer/CommandLineTools/SDKs/MacOSX26.sdk/usr/include" "_wchar.h"
	.file	95 "/opt/homebrew/Cellar/llvm/22.1.3/lib/clang/22/include" "__stdarg_va_list.h"
	.file	96 "/opt/homebrew/Cellar/llvm/22.1.3/bin/../include/c++/v1" "wchar.h"
	.file	97 "/opt/homebrew/Cellar/llvm/22.1.3/bin/../include/c++/v1/__chrono" "duration.h"
	.file	98 "/Library/Developer/CommandLineTools/SDKs/MacOSX26.sdk/usr/include/sys/_types" "_clock_t.h"
	.file	99 "/opt/homebrew/Cellar/llvm/22.1.3/bin/../include/c++/v1" "ctime"
	.file	100 "/Library/Developer/CommandLineTools/SDKs/MacOSX26.sdk/usr/include/sys/_types" "_time_t.h"
	.file	101 "/Library/Developer/CommandLineTools/SDKs/MacOSX26.sdk/usr/include/sys/_types" "_timespec.h"
	.file	102 "/opt/homebrew/Cellar/llvm/22.1.3/bin/../include/c++/v1" "cstdio"
	.file	103 "/Library/Developer/CommandLineTools/SDKs/MacOSX26.sdk/usr/include" "_printf.h"
	.file	104 "/Library/Developer/CommandLineTools/SDKs/MacOSX26.sdk/usr/include" "_locale.h"
	.file	105 "/opt/homebrew/Cellar/llvm/22.1.3/bin/../include/c++/v1" "clocale"
	.file	106 "/Library/Developer/CommandLineTools/SDKs/MacOSX26.sdk/usr/include" "locale.h"
	.file	107 "/opt/homebrew/Cellar/llvm/22.1.3/bin/../include/c++/v1" "cstdarg"